///////////////////////////////////////////////////////////////////////////////
//                                                                            /
// IAR C/C++ Compiler V8.10.1.40194/W32 for 8051        14/Nov/2014  22:00:58 /
// Copyright 2004-2011 IAR Systems AB.                                        /
//                                                                            /
//    Core               =  plain                                             /
//    Code model         =  near                                              /
//    Data model         =  large                                             /
//    Calling convention =  xdata reentrant                                   /
//    Constant location  =  data                                              /
//    Dptr setup         =  1,16                                              /
//    Source file        =  C:\Synchro\Dropbox\Travaux\Automne                /
//                          2014\ProjetSession5\Csharp\TEST\DALLAS TEST       /
//                          PROG\CLSortieLatch.cpp                            /
//    Command line       =  "C:\Synchro\Dropbox\Travaux\Automne               /
//                          2014\ProjetSession5\Csharp\TEST\DALLAS TEST       /
//                          PROG\CLSortieLatch.cpp" -D DALLAS89C450           /
//                          --preprocess=cl "C:\Synchro\Dropbox\Travaux\Autom /
//                          ne 2014\ProjetSession5\Csharp\TEST\DALLAS TEST    /
//                          PROG\DALLAS\List\" -lC "C:\Synchro\Dropbox\Travau /
//                          x\Automne 2014\ProjetSession5\Csharp\TEST\DALLAS  /
//                          TEST PROG\DALLAS\List\" -lA                       /
//                          "C:\Synchro\Dropbox\Travaux\Automne               /
//                          2014\ProjetSession5\Csharp\TEST\DALLAS TEST       /
//                          PROG\DALLAS\List\" -o "C:\Synchro\Dropbox\Travaux /
//                          \Automne 2014\ProjetSession5\Csharp\TEST\DALLAS   /
//                          TEST PROG\DALLAS\Obj\" -e --no_cse --no_unroll    /
//                          --no_inline --no_code_motion --no_tbaa --debug    /
//                          --core=plain --dptr=16,1 --data_model=large       /
//                          --code_model=near --calling_convention=xdata_reen /
//                          trant --place_constants=data --nr_virtual_regs 8  /
//                          --dlib_config "C:\Program Files (x86)\IAR         /
//                          Systems\Embedded Workbench                        /
//                          6.0\8051\LIB\DLIB\dl8051Normal.h" -Ol --ec++      /
//    List file          =  C:\Synchro\Dropbox\Travaux\Automne                /
//                          2014\ProjetSession5\Csharp\TEST\DALLAS TEST       /
//                          PROG\DALLAS\List\CLSortieLatch.s51                /
//                                                                            /
//                                                                            /
///////////////////////////////////////////////////////////////////////////////

        NAME CLSortieLatch

        RTMODEL "__SystemLibrary", "DLib"
        RTMODEL "__calling_convention", "xdata_reentrant"
        RTMODEL "__code_model", "near"
        RTMODEL "__core", "plain"
        RTMODEL "__data_model", "large"
        RTMODEL "__dptr_size", "16"
        RTMODEL "__extended_stack", "disabled"
        RTMODEL "__location_for_constants", "data"
        RTMODEL "__number_of_dptrs", "1"
        RTMODEL "__rt_version", "1"

        RSEG DOVERLAY:DATA:NOROOT(0)
        RSEG IOVERLAY:IDATA:NOROOT(0)
        RSEG ISTACK:IDATA:NOROOT(0)
        RSEG PSTACK:XDATA:NOROOT(0)
        RSEG XSTACK:XDATA:NOROOT(0)

        ERROR
//NOTE: This module defines or uses C++ features that are not
//      accessible from assembler code. Assembling this file will
//      not produce an equivalent object file to the one produced
//      by the C++ compiler.

        EXTERN ?FUNC_ENTER_XDATA
        EXTERN ?FUNC_LEAVE_XDATA
        EXTERN ?V0

        PUBLIC ??ADC
        FUNCTION ??ADC,021203H
        ARGFRAME XSTACK, 0, STACK
        LOCFRAME XSTACK, 11, STACK
        PUBLIC ??DAC
        FUNCTION ??DAC,021203H
        ARGFRAME XSTACK, 0, STACK
        LOCFRAME XSTACK, 11, STACK
        PUBLIC ??DAC_ADC
        FUNCTION ??DAC_ADC,0203H
        ARGFRAME XSTACK, 0, STACK
        ARGFRAME IOVERLAY, 0, STATIC
        ARGFRAME DOVERLAY, 0, STATIC
        PUBLIC ??DAC_ADC_1
        FUNCTION ??DAC_ADC_1,0203H
        ARGFRAME XSTACK, 9, STACK
        ARGFRAME IOVERLAY, 0, STATIC
        ARGFRAME DOVERLAY, 0, STATIC
        PUBLIC `??delete ~DAC_ADC`
        FUNCTION `??delete ~DAC_ADC`,021203H
        ARGFRAME XSTACK, 0, STACK
        LOCFRAME XSTACK, 8, STACK
        PUBLIC `??new DAC_ADC`
        FUNCTION `??new DAC_ADC`,021203H
        ARGFRAME XSTACK, 0, STACK
        LOCFRAME ISTACK, 2, STACK
        PUBLIC `??new DAC_ADC_1`
        FUNCTION `??new DAC_ADC_1`,021203H
        ARGFRAME XSTACK, 0, STACK
        LOCFRAME XSTACK, 9, STACK
        PUBLIC `?~DAC_ADC`
        FUNCTION `?~DAC_ADC`,0203H
        ARGFRAME XSTACK, 8, STACK
        ARGFRAME IOVERLAY, 0, STATIC
        ARGFRAME DOVERLAY, 0, STATIC
        PUBWEAK _A_P3
        
        CFI Names cfiNames0
        CFI StackFrame CFA_SP SP IDATA
        CFI StackFrame CFA_PSP16 PSP16 XDATA
        CFI StackFrame CFA_XSP16 XSP16 XDATA
        CFI StaticOverlayFrame CFA_IOVERLAY IOVERLAY
        CFI StaticOverlayFrame CFA_DOVERLAY DOVERLAY
        CFI Resource `PSW.CY`:1, `B.BR0`:1, `B.BR1`:1, `B.BR2`:1, `B.BR3`:1
        CFI Resource `B.BR4`:1, `B.BR5`:1, `B.BR6`:1, `B.BR7`:1, `VB.BR8`:1
        CFI Resource `VB.BR9`:1, `VB.BR10`:1, `VB.BR11`:1, `VB.BR12`:1
        CFI Resource `VB.BR13`:1, `VB.BR14`:1, `VB.BR15`:1, VB:8, B:8, A:8
        CFI Resource PSW:8, DPL0:8, DPH0:8, R0:8, R1:8, R2:8, R3:8, R4:8, R5:8
        CFI Resource R6:8, R7:8, V0:8, V1:8, V2:8, V3:8, V4:8, V5:8, V6:8, V7:8
        CFI Resource SP:8, PSPH:8, PSPL:8, PSP16:16, XSPH:8, XSPL:8, XSP16:16
        CFI VirtualResource ?RET:16, ?RET_HIGH:8, ?RET_LOW:8
        CFI ResourceParts PSP16 PSPH, PSPL
        CFI ResourceParts XSP16 XSPH, XSPL
        CFI ResourceParts ?RET ?RET_HIGH, ?RET_LOW
        CFI EndNames cfiNames0
        
        CFI Common cfiCommon0 Using cfiNames0
        CFI CodeAlign 1
        CFI DataAlign -1
        CFI ReturnAddress ?RET CODE
        CFI CFA_DOVERLAY Used
        CFI CFA_IOVERLAY Used
        CFI CFA_SP SP+-2
        CFI CFA_PSP16 PSP16+0
        CFI CFA_XSP16 XSP16+0
        CFI `PSW.CY` SameValue
        CFI `B.BR0` SameValue
        CFI `B.BR1` SameValue
        CFI `B.BR2` SameValue
        CFI `B.BR3` SameValue
        CFI `B.BR4` SameValue
        CFI `B.BR5` SameValue
        CFI `B.BR6` SameValue
        CFI `B.BR7` SameValue
        CFI `VB.BR8` SameValue
        CFI `VB.BR9` SameValue
        CFI `VB.BR10` SameValue
        CFI `VB.BR11` SameValue
        CFI `VB.BR12` SameValue
        CFI `VB.BR13` SameValue
        CFI `VB.BR14` SameValue
        CFI `VB.BR15` SameValue
        CFI VB SameValue
        CFI B Undefined
        CFI A Undefined
        CFI PSW SameValue
        CFI DPL0 SameValue
        CFI DPH0 SameValue
        CFI R0 Undefined
        CFI R1 Undefined
        CFI R2 Undefined
        CFI R3 Undefined
        CFI R4 Undefined
        CFI R5 Undefined
        CFI R6 SameValue
        CFI R7 SameValue
        CFI V0 SameValue
        CFI V1 SameValue
        CFI V2 SameValue
        CFI V3 SameValue
        CFI V4 SameValue
        CFI V5 SameValue
        CFI V6 SameValue
        CFI V7 SameValue
        CFI PSPH Undefined
        CFI PSPL Undefined
        CFI XSPH Undefined
        CFI XSPL Undefined
        CFI ?RET Concat
        CFI ?RET_HIGH Frame(CFA_SP, 2)
        CFI ?RET_LOW Frame(CFA_SP, 1)
        CFI EndCommon cfiCommon0
        
        EXTERN `??operator new`
        FUNCTION `??operator new`,010202H
        ARGFRAME ISTACK, 2, STACK
        ARGFRAME PSTACK, 0, STACK
        ARGFRAME XSTACK, 9, STACK
        ARGFRAME IOVERLAY, 0, STATIC
        ARGFRAME DOVERLAY, 0, STATIC
        EXTERN `??operator delete`
        FUNCTION `??operator delete`,010202H
        ARGFRAME ISTACK, 0, STACK
        ARGFRAME PSTACK, 0, STACK
        ARGFRAME XSTACK, 8, STACK
        ARGFRAME IOVERLAY, 0, STATIC
        ARGFRAME DOVERLAY, 0, STATIC
        EXTERN ??vOut
        FUNCTION ??vOut,0202H
        ARGFRAME ISTACK, 0, STACK
        ARGFRAME PSTACK, 0, STACK
        ARGFRAME XSTACK, 11, STACK
        ARGFRAME IOVERLAY, 0, STATIC
        ARGFRAME DOVERLAY, 0, STATIC
        EXTERN ??ucIn
        FUNCTION ??ucIn,0202H
        ARGFRAME ISTACK, 0, STACK
        ARGFRAME PSTACK, 0, STACK
        ARGFRAME XSTACK, 11, STACK
        ARGFRAME IOVERLAY, 0, STATIC
        ARGFRAME DOVERLAY, 0, STATIC

// C:\Synchro\Dropbox\Travaux\Automne 2014\ProjetSession5\Csharp\TEST\DALLAS TEST PROG\CLSortieLatch.cpp
//    1 // **************************CLSortieLatch.cpp
//    2 // Auteur:       Vincent Chouinard
//    3 // Date:         20 juillet 2014
//    4 // Version:      1.0
//    5 // Modification: Aucune
//    6 //
//    7 // Compilateur:  IAR 8.1
//    8 //
//    9 // Description:
//   10 // *****************************************************************************
//   11 // Le channel du convertisseur ADC va de 0xFA08 a 0xFA0F
//   12 // Le channel du convertisseur DAC va de...
//   13 // *****************************************************************************
//   14 #include "_DeclarationGenerale.h"  // Raccourcis de programmation & variables

        ASEGN SFR_AN:DATA:NOROOT,0b0H
// union <unnamed> volatile __sfr _A_P3
_A_P3:
        DATA8
        DS 1

        RSEG NEAR_CODE:CODE:NOROOT(0)
// __near_func __xdata_reentrant DAC_ADC &DAC_ADC::new DAC_ADC()
`??new DAC_ADC`:
        CFI Block cfiBlock0 Using cfiCommon0
        CFI Function `??new DAC_ADC`
        CODE
        FUNCALL `??new DAC_ADC`, `??operator new`
        LOCFRAME ISTACK, 2, STACK
        LOCFRAME PSTACK, 0, STACK
        LOCFRAME XSTACK, 0, STACK
        LOCFRAME IOVERLAY, 0, STATIC
        LOCFRAME DOVERLAY, 0, STATIC
        ARGFRAME ISTACK, 2, STACK
        ARGFRAME PSTACK, 0, STACK
        ARGFRAME XSTACK, 0, STACK
        ARGFRAME IOVERLAY, 0, STATIC
        ARGFRAME DOVERLAY, 0, STATIC
        FUNCALL `??new DAC_ADC`, ??DAC_ADC
        LOCFRAME ISTACK, 2, STACK
        LOCFRAME PSTACK, 0, STACK
        LOCFRAME XSTACK, 0, STACK
        LOCFRAME IOVERLAY, 0, STATIC
        LOCFRAME DOVERLAY, 0, STATIC
        ARGFRAME ISTACK, 2, STACK
        ARGFRAME PSTACK, 0, STACK
        ARGFRAME XSTACK, 0, STACK
        ARGFRAME IOVERLAY, 0, STATIC
        ARGFRAME DOVERLAY, 0, STATIC
        PUSH    ?V0 + 0
        CFI V0 Frame(CFA_SP, 3)
        CFI CFA_SP SP+-3
        PUSH    ?V0 + 1
        CFI V1 Frame(CFA_SP, 4)
        CFI CFA_SP SP+-4
        ; Saved register size: 2
        ; Auto size: 0
        ; Setup parameters for call to function operator new(unsigned int)
        MOV     R2,#0x1
        MOV     R3,#0x0
        LCALL   `??operator new`
        MOV     ?V0 + 0,R2
        MOV     ?V0 + 1,R3
        MOV     R0,?V0 + 0
        MOV     R1,?V0 + 1
        MOV     A,R0
        MOV     R2,A
        MOV     A,R1
        MOV     R3,A
        MOV     A,R0
        ORL     A,R1
        JZ      `??new DAC_ADC_2`
        ; Setup parameters for call to function DAC_ADC::DAC_ADC()
        LCALL   ??DAC_ADC
        MOV     ?V0 + 0,R2
        MOV     ?V0 + 1,R3
        MOV     R2,?V0 + 0
        MOV     R3,?V0 + 1
        SJMP    `??new DAC_ADC_3`
`??new DAC_ADC_2`:
        MOV     R2,#0x0
        MOV     R3,#0x0
`??new DAC_ADC_3`:
        POP     ?V0 + 1
        CFI V1 SameValue
        CFI CFA_SP SP+-3
        POP     ?V0 + 0
        CFI V0 SameValue
        CFI CFA_SP SP+-2
        RET
        CFI EndBlock cfiBlock0

        RSEG NEAR_CODE:CODE:NOROOT(0)
// __near_func __xdata_reentrant DAC_ADC &DAC_ADC::new DAC_ADC(UC)
`??new DAC_ADC_1`:
        CFI Block cfiBlock1 Using cfiCommon0
        CFI Function `??new DAC_ADC_1`
        CODE
        FUNCALL `??new DAC_ADC_1`, `??operator new`
        LOCFRAME ISTACK, 0, STACK
        LOCFRAME PSTACK, 0, STACK
        LOCFRAME XSTACK, 9, STACK
        LOCFRAME IOVERLAY, 0, STATIC
        LOCFRAME DOVERLAY, 0, STATIC
        ARGFRAME ISTACK, 0, STACK
        ARGFRAME PSTACK, 0, STACK
        ARGFRAME XSTACK, 9, STACK
        ARGFRAME IOVERLAY, 0, STATIC
        ARGFRAME DOVERLAY, 0, STATIC
        FUNCALL `??new DAC_ADC_1`, ??DAC_ADC_1
        LOCFRAME ISTACK, 0, STACK
        LOCFRAME PSTACK, 0, STACK
        LOCFRAME XSTACK, 9, STACK
        LOCFRAME IOVERLAY, 0, STATIC
        LOCFRAME DOVERLAY, 0, STATIC
        ARGFRAME ISTACK, 0, STACK
        ARGFRAME PSTACK, 0, STACK
        ARGFRAME XSTACK, 9, STACK
        ARGFRAME IOVERLAY, 0, STATIC
        ARGFRAME DOVERLAY, 0, STATIC
        MOV     A,#-0x9
        LCALL   ?FUNC_ENTER_XDATA
        CFI DPH0 load(1, XDATA, add(CFA_XSP16, literal(-1)))
        CFI DPL0 load(1, XDATA, add(CFA_XSP16, literal(-2)))
        CFI ?RET_HIGH load(1, XDATA, add(CFA_XSP16, literal(-3)))
        CFI ?RET_LOW load(1, XDATA, add(CFA_XSP16, literal(-4)))
        CFI R7 load(1, XDATA, add(CFA_XSP16, literal(-5)))
        CFI V1 load(1, XDATA, add(CFA_XSP16, literal(-6)))
        CFI V0 load(1, XDATA, add(CFA_XSP16, literal(-7)))
        CFI VB load(1, XDATA, add(CFA_XSP16, literal(-8)))
        CFI R6 load(1, XDATA, add(CFA_XSP16, literal(-9)))
        CFI CFA_SP SP+0
        CFI CFA_XSP16 add(XSP16, 9)
        ; Saved register size: 9
        ; Auto size: 0
        MOV     A,R1
        MOV     R6,A
        ; Setup parameters for call to function operator new(unsigned int)
        MOV     R2,#0x1
        MOV     R3,#0x0
        LCALL   `??operator new`
        MOV     ?V0 + 0,R2
        MOV     ?V0 + 1,R3
        MOV     R0,?V0 + 0
        MOV     R1,?V0 + 1
        MOV     A,R0
        MOV     R2,A
        MOV     A,R1
        MOV     R3,A
        MOV     A,R0
        ORL     A,R1
        JZ      `??new DAC_ADC_4`
        ; Setup parameters for call to function DAC_ADC::DAC_ADC(UC)
        MOV     A,R6
        MOV     R1,A
        LCALL   ??DAC_ADC_1
        MOV     ?V0 + 0,R2
        MOV     ?V0 + 1,R3
        MOV     R2,?V0 + 0
        MOV     R3,?V0 + 1
        SJMP    `??new DAC_ADC_5`
`??new DAC_ADC_4`:
        MOV     R2,#0x0
        MOV     R3,#0x0
`??new DAC_ADC_5`:
        MOV     R7,#0x2
        LJMP    ?FUNC_LEAVE_XDATA
        CFI EndBlock cfiBlock1

        RSEG NEAR_CODE:CODE:NOROOT(0)
// __near_func __xdata_reentrant void DAC_ADC::delete ~DAC_ADC(DAC_ADC *)
`??delete ~DAC_ADC`:
        CFI Block cfiBlock2 Using cfiCommon0
        CFI Function `??delete ~DAC_ADC`
        CODE
        FUNCALL `??delete ~DAC_ADC`, `?~DAC_ADC`
        LOCFRAME ISTACK, 0, STACK
        LOCFRAME PSTACK, 0, STACK
        LOCFRAME XSTACK, 8, STACK
        LOCFRAME IOVERLAY, 0, STATIC
        LOCFRAME DOVERLAY, 0, STATIC
        ARGFRAME ISTACK, 0, STACK
        ARGFRAME PSTACK, 0, STACK
        ARGFRAME XSTACK, 8, STACK
        ARGFRAME IOVERLAY, 0, STATIC
        ARGFRAME DOVERLAY, 0, STATIC
        FUNCALL `??delete ~DAC_ADC`, `??operator delete`
        LOCFRAME ISTACK, 0, STACK
        LOCFRAME PSTACK, 0, STACK
        LOCFRAME XSTACK, 8, STACK
        LOCFRAME IOVERLAY, 0, STATIC
        LOCFRAME DOVERLAY, 0, STATIC
        ARGFRAME ISTACK, 0, STACK
        ARGFRAME PSTACK, 0, STACK
        ARGFRAME XSTACK, 8, STACK
        ARGFRAME IOVERLAY, 0, STATIC
        ARGFRAME DOVERLAY, 0, STATIC
        MOV     A,#-0x8
        LCALL   ?FUNC_ENTER_XDATA
        CFI DPH0 load(1, XDATA, add(CFA_XSP16, literal(-1)))
        CFI DPL0 load(1, XDATA, add(CFA_XSP16, literal(-2)))
        CFI ?RET_HIGH load(1, XDATA, add(CFA_XSP16, literal(-3)))
        CFI ?RET_LOW load(1, XDATA, add(CFA_XSP16, literal(-4)))
        CFI R7 load(1, XDATA, add(CFA_XSP16, literal(-5)))
        CFI V0 load(1, XDATA, add(CFA_XSP16, literal(-6)))
        CFI VB load(1, XDATA, add(CFA_XSP16, literal(-7)))
        CFI R6 load(1, XDATA, add(CFA_XSP16, literal(-8)))
        CFI CFA_SP SP+0
        CFI CFA_XSP16 add(XSP16, 8)
        ; Saved register size: 8
        ; Auto size: 0
        MOV     A,R2
        MOV     R6,A
        MOV     A,R3
        MOV     R7,A
        MOV     A,R6
        ORL     A,R7
        JZ      `??delete ~DAC_ADC_1`
        ; Setup parameters for call to function DAC_ADC::~DAC_ADC()
        MOV     A,R6
        MOV     R2,A
        MOV     A,R7
        MOV     R3,A
        LCALL   `?~DAC_ADC`
        ; Setup parameters for call to function operator delete(void *)
        MOV     A,R6
        MOV     R2,A
        MOV     A,R7
        MOV     R3,A
        LCALL   `??operator delete`
`??delete ~DAC_ADC_1`:
        MOV     R7,#0x1
        LJMP    ?FUNC_LEAVE_XDATA
        CFI EndBlock cfiBlock2
//   15 #include "CLSortieLatch.h"              // Fichier de definitions du clavier
//   16 #include "CLInOutBase.h"
//   17 
//   18 
//   19 //******************************************************************************
//   20 //                            LE CONSTRUCTEUR PAR DEFAUT
//   21 // *****************************************************************************

        RSEG NEAR_CODE:CODE:NOROOT(0)
//   22 DAC_ADC :: DAC_ADC(void)
??DAC_ADC:
        CFI Block cfiBlock3 Using cfiCommon0
        CFI Function ??DAC_ADC
        CODE
//   23 {
        ; Saved register size: 0
        ; Auto size: 0
//   24 
//   25 }
        RET
        CFI EndBlock cfiBlock3
//   26 
//   27 //******************************************************************************
//   28 //                            LE CONSTRUCTEUR PAR DEFAUT
//   29 // *****************************************************************************

        RSEG NEAR_CODE:CODE:NOROOT(0)
//   30 DAC_ADC :: DAC_ADC(UC ucParametre)
??DAC_ADC_1:
        CFI Block cfiBlock4 Using cfiCommon0
        CFI Function ??DAC_ADC_1
        CODE
//   31 {
        ; Saved register size: 0
        ; Auto size: 0
//   32 
//   33 }
        RET
        CFI EndBlock cfiBlock4
//   34 
//   35 // *****************************************************************************
//   36 //                            LE DESTRUCTEUR
//   37 // *****************************************************************************

        RSEG NEAR_CODE:CODE:NOROOT(0)
//   38 DAC_ADC :: ~DAC_ADC(void)
`?~DAC_ADC`:
        CFI Block cfiBlock5 Using cfiCommon0
        CFI Function `?~DAC_ADC`
        CODE
//   39 {
        ; Saved register size: 0
        ; Auto size: 0
//   40 
//   41 }
        RET
        CFI EndBlock cfiBlock5
//   42 

        RSEG NEAR_CODE:CODE:NOROOT(0)
//   43 void DAC_ADC :: DAC(UC ucChannel, UC ucData)
??DAC:
        CFI Block cfiBlock6 Using cfiCommon0
        CFI Function ??DAC
        CODE
//   44 {
        FUNCALL ??DAC, ??vOut
        LOCFRAME ISTACK, 0, STACK
        LOCFRAME PSTACK, 0, STACK
        LOCFRAME XSTACK, 11, STACK
        LOCFRAME IOVERLAY, 0, STATIC
        LOCFRAME DOVERLAY, 0, STATIC
        ARGFRAME ISTACK, 0, STACK
        ARGFRAME PSTACK, 0, STACK
        ARGFRAME XSTACK, 11, STACK
        ARGFRAME IOVERLAY, 0, STATIC
        ARGFRAME DOVERLAY, 0, STATIC
        FUNCALL ??DAC, ??vOut
        LOCFRAME ISTACK, 0, STACK
        LOCFRAME PSTACK, 0, STACK
        LOCFRAME XSTACK, 11, STACK
        LOCFRAME IOVERLAY, 0, STATIC
        LOCFRAME DOVERLAY, 0, STATIC
        ARGFRAME ISTACK, 0, STACK
        ARGFRAME PSTACK, 0, STACK
        ARGFRAME XSTACK, 11, STACK
        ARGFRAME IOVERLAY, 0, STATIC
        ARGFRAME DOVERLAY, 0, STATIC
        MOV     A,#-0xb
        LCALL   ?FUNC_ENTER_XDATA
        CFI DPH0 load(1, XDATA, add(CFA_XSP16, literal(-1)))
        CFI DPL0 load(1, XDATA, add(CFA_XSP16, literal(-2)))
        CFI ?RET_HIGH load(1, XDATA, add(CFA_XSP16, literal(-3)))
        CFI ?RET_LOW load(1, XDATA, add(CFA_XSP16, literal(-4)))
        CFI R7 load(1, XDATA, add(CFA_XSP16, literal(-5)))
        CFI V3 load(1, XDATA, add(CFA_XSP16, literal(-6)))
        CFI V2 load(1, XDATA, add(CFA_XSP16, literal(-7)))
        CFI V1 load(1, XDATA, add(CFA_XSP16, literal(-8)))
        CFI V0 load(1, XDATA, add(CFA_XSP16, literal(-9)))
        CFI VB load(1, XDATA, add(CFA_XSP16, literal(-10)))
        CFI R6 load(1, XDATA, add(CFA_XSP16, literal(-11)))
        CFI CFA_SP SP+0
        CFI CFA_XSP16 add(XSP16, 11)
        ; Saved register size: 11
        ; Auto size: 0
        MOV     DPL,R2
        MOV     DPH,R3
        MOV     ?V0 + 1,R1
        MOV     ?V0 + 0,R4
//   45 unsigned int uiAdresseDA;
//   46 uiAdresseDA = 0xFA28 + ucChannel;
        MOV     ?V0 + 2,?V0 + 1
        MOV     ?V0 + 3,#0x0
        MOV     A,?V0 + 2
        ADD     A,#0x28
        MOV     R6,A
        MOV     A,?V0 + 3
        ADDC    A,#-0x6
        MOV     R7,A
//   47 
//   48 vOut (0xFA20, ucData);            // Écriture de la donnée sur le latch (activation via chip select)
        ; Setup parameters for call to function CLInOutBase::vOut(USI, UC)
        MOV     R1,?V0 + 0
        MOV     R4,#0x20
        MOV     R5,#-0x6
        MOV     R2,DPL
        MOV     R3,DPH
        LCALL   ??vOut
//   49 vOut (uiAdresseDA, ucData);       // Transfert de la donnée du latch au convertisseur (via chip select)
        ; Setup parameters for call to function CLInOutBase::vOut(USI, UC)
        MOV     R1,?V0 + 0
        MOV     A,R6
        MOV     R4,A
        MOV     A,R7
        MOV     R5,A
        MOV     R2,DPL
        MOV     R3,DPH
        LCALL   ??vOut
//   50 }
        MOV     R7,#0x4
        LJMP    ?FUNC_LEAVE_XDATA
        CFI EndBlock cfiBlock6
//   51 
//   52 
//   53 
//   54 
//   55 
//   56 
//   57 

        RSEG NEAR_CODE:CODE:NOROOT(0)
//   58 UC DAC_ADC :: ADC(UC ucChannel)
??ADC:
        CFI Block cfiBlock7 Using cfiCommon0
        CFI Function ??ADC
        CODE
//   59 {
        FUNCALL ??ADC, ??ucIn
        LOCFRAME ISTACK, 0, STACK
        LOCFRAME PSTACK, 0, STACK
        LOCFRAME XSTACK, 11, STACK
        LOCFRAME IOVERLAY, 0, STATIC
        LOCFRAME DOVERLAY, 0, STATIC
        ARGFRAME ISTACK, 0, STACK
        ARGFRAME PSTACK, 0, STACK
        ARGFRAME XSTACK, 11, STACK
        ARGFRAME IOVERLAY, 0, STATIC
        ARGFRAME DOVERLAY, 0, STATIC
        FUNCALL ??ADC, ??ucIn
        LOCFRAME ISTACK, 0, STACK
        LOCFRAME PSTACK, 0, STACK
        LOCFRAME XSTACK, 11, STACK
        LOCFRAME IOVERLAY, 0, STATIC
        LOCFRAME DOVERLAY, 0, STATIC
        ARGFRAME ISTACK, 0, STACK
        ARGFRAME PSTACK, 0, STACK
        ARGFRAME XSTACK, 11, STACK
        ARGFRAME IOVERLAY, 0, STATIC
        ARGFRAME DOVERLAY, 0, STATIC
        MOV     A,#-0xb
        LCALL   ?FUNC_ENTER_XDATA
        CFI DPH0 load(1, XDATA, add(CFA_XSP16, literal(-1)))
        CFI DPL0 load(1, XDATA, add(CFA_XSP16, literal(-2)))
        CFI ?RET_HIGH load(1, XDATA, add(CFA_XSP16, literal(-3)))
        CFI ?RET_LOW load(1, XDATA, add(CFA_XSP16, literal(-4)))
        CFI R7 load(1, XDATA, add(CFA_XSP16, literal(-5)))
        CFI V3 load(1, XDATA, add(CFA_XSP16, literal(-6)))
        CFI V2 load(1, XDATA, add(CFA_XSP16, literal(-7)))
        CFI V1 load(1, XDATA, add(CFA_XSP16, literal(-8)))
        CFI V0 load(1, XDATA, add(CFA_XSP16, literal(-9)))
        CFI VB load(1, XDATA, add(CFA_XSP16, literal(-10)))
        CFI R6 load(1, XDATA, add(CFA_XSP16, literal(-11)))
        CFI CFA_SP SP+0
        CFI CFA_XSP16 add(XSP16, 11)
        ; Saved register size: 11
        ; Auto size: 0
        MOV     DPL,R2
        MOV     DPH,R3
        MOV     ?V0 + 0,R1
//   60 UC ucEssai;
//   61 unsigned int uiAdresseAD;
//   62 
//   63 uiAdresseAD = 0xFA08 + ucChannel; //Ajoute l'adresse au canal      
        MOV     ?V0 + 2,?V0 + 0
        MOV     ?V0 + 3,#0x0
        MOV     A,?V0 + 2
        ADD     A,#0x8
        MOV     R6,A
        MOV     A,?V0 + 3
        ADDC    A,#-0x6
        MOV     R7,A
//   64 ucEssai     = ucIn(uiAdresseAD);  //Chip select du ADC7829
        ; Setup parameters for call to function CLInOutBase::ucIn(USI)
        MOV     A,R6
        MOV     R4,A
        MOV     A,R7
        MOV     R5,A
        MOV     R2,DPL
        MOV     R3,DPH
        LCALL   ??ucIn
        MOV     A,R1
        MOV     R1,A
//   65 P3_3        = 0;                  //Demande de conversion
        CLR     0xb0.3
//   66 P3_3        = 1;                  //Demande de conversion
        SETB    0xb0.3
//   67 while (P3_2 == 0);                //Attente de fin de conversion
??ADC_1:
        MOV     C,0xb0.2
        JNC     ??ADC_1
//   68   {
//   69    ucEssai = ucIn(uiAdresseAD);   //Lecture du convertisseur
        ; Setup parameters for call to function CLInOutBase::ucIn(USI)
        MOV     A,R6
        MOV     R4,A
        MOV     A,R7
        MOV     R5,A
        MOV     R2,DPL
        MOV     R3,DPH
        LCALL   ??ucIn
        MOV     A,R1
        MOV     R1,A
//   70   }
//   71 //Version de programme pour la carte IO BUG ver2 ou il n'y a pas de buffer sur le bus de donnees
//   72 //   ucEssai = ucInput(0xFA10);         //Lecture du buffer du convertisseur AD
//   73    return (ucEssai);
        MOV     R7,#0x4
        LJMP    ?FUNC_LEAVE_XDATA
        CFI EndBlock cfiBlock7
        REQUIRE _A_P3
//   74 }

        END
//   75 
//   76 
//   77 
//   78 //LinuxLinuxLinuxLinuxLinuxLinuxLinuxLinuxLinuxLinuxLinuxLinuxLinuxLinuxLinuxTUX
// 
// 264 bytes in segment NEAR_CODE
//   1 byte  in segment SFR_AN
// 
// 264 bytes of CODE memory
//   0 bytes of DATA memory (+ 1 byte shared)
//
//Errors: none
//Warnings: none
