###############################################################################
#                                                                             #
# IAR C/C++ Compiler V8.10.1.40194/W32 for 8051         27/Oct/2014  20:17:42 #
# Copyright 2004-2011 IAR Systems AB.                                         #
#                                                                             #
#    Core               =  plain                                              #
#    Code model         =  near                                               #
#    Data model         =  large                                              #
#    Calling convention =  xdata reentrant                                    #
#    Constant location  =  data                                               #
#    Dptr setup         =  1,16                                               #
#    Source file        =  C:\Synchro\Dropbox\Travaux\Automne                 #
#                          2014\Prog\Labo6\Programme\CANBUS.cpp               #
#    Command line       =  "C:\Synchro\Dropbox\Travaux\Automne                #
#                          2014\Prog\Labo6\Programme\CANBUS.cpp" -D           #
#                          UPSD3254A --preprocess=cl                          #
#                          "C:\Synchro\Dropbox\Travaux\Automne                #
#                          2014\Prog\Labo6\Programme\UPSD\List\" -lC          #
#                          "C:\Synchro\Dropbox\Travaux\Automne                #
#                          2014\Prog\Labo6\Programme\UPSD\List\" -lA          #
#                          "C:\Synchro\Dropbox\Travaux\Automne                #
#                          2014\Prog\Labo6\Programme\UPSD\List\" -o           #
#                          "C:\Synchro\Dropbox\Travaux\Automne                #
#                          2014\Prog\Labo6\Programme\UPSD\Obj\" -e --no_cse   #
#                          --no_unroll --no_inline --no_code_motion           #
#                          --no_tbaa --debug --core=plain --dptr=16,1         #
#                          --data_model=large --code_model=near               #
#                          --calling_convention=xdata_reentrant               #
#                          --place_constants=data --nr_virtual_regs 8         #
#                          --dlib_config "C:\Program Files (x86)\IAR          #
#                          Systems\Embedded Workbench                         #
#                          6.0\8051\LIB\DLIB\dl8051Normal.h" -Ol --eec++      #
#    List file          =  C:\Synchro\Dropbox\Travaux\Automne                 #
#                          2014\Prog\Labo6\Programme\UPSD\List\CANBUS.lst     #
#    Object file        =  C:\Synchro\Dropbox\Travaux\Automne                 #
#                          2014\Prog\Labo6\Programme\UPSD\Obj\CANBUS.r51      #
#                                                                             #
#                                                                             #
###############################################################################

C:\Synchro\Dropbox\Travaux\Automne 2014\Prog\Labo6\Programme\CANBUS.cpp
      1          // **************************CANBUS.cpp
      2          // Auteur:       Vincent Chouinard
      3          // Date:         20 juillet 2014
      4          // Version:      1.0
      5          // Modification: Aucune
      6          //
      7          // Compilateur:  IAR 8.1
      8          //
      9          // Description:
     10          // *****************************************************************************
     11          #include "_DeclarationGenerale.h" // Raccourcis de programmation & variables
     12          #include "CANBUS.h"               // Fichier de definitions du bus CAN
     13          #include "MCP2515.h"              // define des registres du MCP2515
     14          #include "CLSPI.h"                // Pour utiliser le bus SPI
     15          // *****************************************************************************
     16          #define MCP2415                   // Pour la compilation conditionnelle
     17          #define MCP2515_CS P1_7;
     18          #define MCP2515_CHOIX_IDENTIFIANT 0x0A0
     19          // *****************************************************************************
     20          
     21          //******************************************************************************
     22          //                            LE CONSTRUCTEUR PAR DEFAUT
     23          // *****************************************************************************

   \                                 In  segment NEAR_CODE, align 1, keep-with-next
     24          CanBus :: CanBus(void)
   \                     ??CanBus:
   \   000000   74F8         MOV     A,#-0x8
   \   000002   12....       LCALL   ?FUNC_ENTER_XDATA
   \   000005                ; Saved register size: 8
   \   000005                ; Auto size: 1
   \   000005   74FF         MOV     A,#-0x1
   \   000007   12....       LCALL   ?ALLOC_XSTACK8
   \   00000A   EA           MOV     A,R2
   \   00000B   FE           MOV     R6,A
   \   00000C   EB           MOV     A,R3
   \   00000D   FF           MOV     R7,A
     25          {
   \   00000E                ; Setup parameters for call to function CLSPI::CLSPI()
   \   00000E   EE           MOV     A,R6
   \   00000F   FA           MOV     R2,A
   \   000010   EF           MOV     A,R7
   \   000011   FB           MOV     R3,A
   \   000012   12....       LCALL   ??CLSPI
     26          class CLSPI SPI;  // Initialise le SPI
   \   000015                ; Setup parameters for call to function CLSPI::CLSPI()
   \   000015   85..82       MOV     DPL,?XSP + 0
   \   000018   85..83       MOV     DPH,?XSP + 1
   \   00001B   AA82         MOV     R2,DPL
   \   00001D   AB83         MOV     R3,DPH
   \   00001F   12....       LCALL   ??CLSPI
     27          MCP24515_init();  // Initialise le MCP2515
   \   000022                ; Setup parameters for call to function CanBus::MCP24515_init()
   \   000022   EE           MOV     A,R6
   \   000023   FA           MOV     R2,A
   \   000024   EF           MOV     A,R7
   \   000025   FB           MOV     R3,A
   \   000026   12....       LCALL   ??MCP24515_init
     28          ChoisirIdentifiantTX0(MCP2515_CHOIX_IDENTIFIANT); //
   \   000029                ; Setup parameters for call to function CanBus::ChoisirIdentifiantTX0(int)
   \   000029   7CA0         MOV     R4,#-0x60
   \   00002B   7D00         MOV     R5,#0x0
   \   00002D   EE           MOV     A,R6
   \   00002E   FA           MOV     R2,A
   \   00002F   EF           MOV     A,R7
   \   000030   FB           MOV     R3,A
   \   000031   12....       LCALL   ??ChoisirIdentifiantTX0
     29          }
   \   000034                ; Setup parameters for call to function CLSPI::~CLSPI()
   \   000034   85..82       MOV     DPL,?XSP + 0
   \   000037   85..83       MOV     DPH,?XSP + 1
   \   00003A   AA82         MOV     R2,DPL
   \   00003C   AB83         MOV     R3,DPH
   \   00003E   12....       LCALL   `?~CLSPI`
   \   000041   EE           MOV     A,R6
   \   000042   FA           MOV     R2,A
   \   000043   EF           MOV     A,R7
   \   000044   FB           MOV     R3,A
   \   000045   7401         MOV     A,#0x1
   \   000047   12....       LCALL   ?DEALLOC_XSTACK8
   \   00004A   7F01         MOV     R7,#0x1
   \   00004C   02....       LJMP    ?FUNC_LEAVE_XDATA
     30          
     31          //******************************************************************************
     32          //                            LE CONSTRUCTEUR INITIALISATEUR
     33          // *****************************************************************************

   \                                 In  segment NEAR_CODE, align 1, keep-with-next
     34          CanBus :: CanBus(UC ucParametre) // Initialisation du CAN via MCP2515
   \                     ??CanBus_1:
   \   000000   C082         PUSH    DPL
   \   000002   C083         PUSH    DPH
   \   000004                ; Saved register size: 2
   \   000004                ; Auto size: 0
   \   000004   8A82         MOV     DPL,R2
   \   000006   8B83         MOV     DPH,R3
     35          {
   \   000008                ; Setup parameters for call to function CLSPI::CLSPI()
   \   000008   AA82         MOV     R2,DPL
   \   00000A   AB83         MOV     R3,DPH
   \   00000C   12....       LCALL   ??CLSPI
     36          
     37          }
   \   00000F   AA82         MOV     R2,DPL
   \   000011   AB83         MOV     R3,DPH
   \   000013   D083         POP     DPH
   \   000015   D082         POP     DPL
   \   000017   22           RET
     38          
     39          // *****************************************************************************
     40          //                            LE DESTRUCTEUR
     41          // *****************************************************************************

   \                                 In  segment NEAR_CODE, align 1, keep-with-next
     42          CanBus :: ~CanBus(void)
   \                     `?~CanBus`:
     43          {
   \   000000                ; Saved register size: 0
   \   000000                ; Auto size: 0
     44          
     45          }
   \   000000                ; Setup parameters for call to function CLSPI::~CLSPI()
   \   000000   02....       LJMP    `?~CLSPI`
     46          
     47          

   \                                 In  segment NEAR_CODE, align 1, keep-with-next
     48          void CanBus :: MCP24515_init(void)
   \                     ??MCP24515_init:
     49          {
   \   000000   74F8         MOV     A,#-0x8
   \   000002   12....       LCALL   ?FUNC_ENTER_XDATA
   \   000005                ; Saved register size: 8
   \   000005                ; Auto size: 0
   \   000005   EA           MOV     A,R2
   \   000006   FE           MOV     R6,A
   \   000007   EB           MOV     A,R3
   \   000008   FF           MOV     R7,A
     50          // Envoi de la commande de « RESET », qui consiste en l'envoi de l'octet « 0xC0 », par le bus SPI. 
     51             WriteMPC2514(1, MCP2515_RESET, 0x00, 0x00);
   \   000009                ; Setup parameters for call to function CLSPI::WriteMPC2514(UC, UC, UC, UC)
   \   000009   75..00       MOV     ?V0 + 0,#0x0
   \   00000C   78..         MOV     R0,#?V0 + 0
   \   00000E   12....       LCALL   ?PUSH_XSTACK_I_ONE
   \   000011   7D00         MOV     R5,#0x0
   \   000013   7CC0         MOV     R4,#-0x40
   \   000015   7901         MOV     R1,#0x1
   \   000017   EE           MOV     A,R6
   \   000018   FA           MOV     R2,A
   \   000019   EF           MOV     A,R7
   \   00001A   FB           MOV     R3,A
   \   00001B   12....       LCALL   ??WriteMPC2514
   \   00001E   7401         MOV     A,#0x1
   \   000020   12....       LCALL   ?DEALLOC_XSTACK8
   \   000023   E9           MOV     A,R1
     52             Delai(1000);   // Délai permettant de s'assurer que le MCP2515 soit bien réinitialisé.
   \   000024                ; Setup parameters for call to function CanBus::Delai(unsigned long)
   \   000024   90....       MOV     DPTR,#__Constant_3e8
   \   000027   12....       LCALL   ?PUSH_XSTACK8_X_FOUR
   \   00002A   EE           MOV     A,R6
   \   00002B   FA           MOV     R2,A
   \   00002C   EF           MOV     A,R7
   \   00002D   FB           MOV     R3,A
   \   00002E   12....       LCALL   ??Delai
   \   000031   7404         MOV     A,#0x4
   \   000033   12....       LCALL   ?DEALLOC_XSTACK8
     53                  
     54          // Passage du circuit MCP2515 en « Configuration mode », nécéssaire 
     55          // pour pouvoir effectuer les opérations de configurations qui suivent 
     56          
     57             EcrireRegistreMCP2515(MCP2515_CANCTRL, 0x87);   /* Registre 0x0F.
   \   000036                ; Setup parameters for call to function CanBus::EcrireRegistreMCP2515(UC, UC)
   \   000036   7C87         MOV     R4,#-0x79
   \   000038   790F         MOV     R1,#0xf
   \   00003A   EE           MOV     A,R6
   \   00003B   FA           MOV     R2,A
   \   00003C   EF           MOV     A,R7
   \   00003D   FB           MOV     R3,A
   \   00003E   12....       LCALL   ??EcrireRegistreMCP2515
     58                                       - REQOP2   = 1 :
     59                                       - REQOP1   = 0 :
     60                                       - REQOP0   = 0 : le circuit est passé en « Configuration mode »,
     61                                       - ABAT     = 0 : ne pas annuler toutes les transmissons en attentes, si nécéssaire,
     62                                       - OSM          : renvois des messages, si nécessaire,
     63                                       - CLKEN    = 1 : la broche « CLKOUT » est activée,
     64                                       - CLKPRE1  = 1 : 
     65                                       - CLKPRE0  = 1 : réglage du prédiviseur de l'horloge de la broche « CLKOUT » à 8,
     66                                       - F_CLKOUT = System Clock / 8 */        
     67                       
     68             EcrireRegistreMCP2515(MCP2515_TX01_INT,  0x3C); /* Registre 0x0C */
   \   000041                ; Setup parameters for call to function CanBus::EcrireRegistreMCP2515(UC, UC)
   \   000041   7C3C         MOV     R4,#0x3c
   \   000043   790C         MOV     R1,#0xc
   \   000045   EE           MOV     A,R6
   \   000046   FA           MOV     R2,A
   \   000047   EF           MOV     A,R7
   \   000048   FB           MOV     R3,A
   \   000049   12....       LCALL   ??EcrireRegistreMCP2515
     69             EcrireRegistreMCP2515(MCP2515_TXRTSCTRL, 0x00); /* Registre 0x0D.
   \   00004C                ; Setup parameters for call to function CanBus::EcrireRegistreMCP2515(UC, UC)
   \   00004C   7C00         MOV     R4,#0x0
   \   00004E   790D         MOV     R1,#0xd
   \   000050   EE           MOV     A,R6
   \   000051   FA           MOV     R2,A
   \   000052   EF           MOV     A,R7
   \   000053   FB           MOV     R3,A
   \   000054   12....       LCALL   ??EcrireRegistreMCP2515
     70                                     L'envoi d'un message - RTS - ne se fait pas sur le passage à « 0 » d'une broche,
     71                                     mais après l'envoi de la commande « RTS », par l'intermédiaire du bus SPI */
     72             
     73          /* Initialisations des registres des compteurs d'erreurs */
     74             EcrireRegistreMCP2515(MCP2515_TEC, 0x00); /* Registre 0x1C.
   \   000057                ; Setup parameters for call to function CanBus::EcrireRegistreMCP2515(UC, UC)
   \   000057   7C00         MOV     R4,#0x0
   \   000059   791C         MOV     R1,#0x1c
   \   00005B   EE           MOV     A,R6
   \   00005C   FA           MOV     R2,A
   \   00005D   EF           MOV     A,R7
   \   00005E   FB           MOV     R3,A
   \   00005F   12....       LCALL   ??EcrireRegistreMCP2515
     75                                    Mise à zéro du compteur d'erreurs en émission.*/
     76             EcrireRegistreMCP2515(MCP2515_REC, 0x00); /* Registre 0x1D.
   \   000062                ; Setup parameters for call to function CanBus::EcrireRegistreMCP2515(UC, UC)
   \   000062   7C00         MOV     R4,#0x0
   \   000064   791D         MOV     R1,#0x1d
   \   000066   EE           MOV     A,R6
   \   000067   FA           MOV     R2,A
   \   000068   EF           MOV     A,R7
   \   000069   FB           MOV     R3,A
   \   00006A   12....       LCALL   ??EcrireRegistreMCP2515
     77                                    Mise à zéro du compteur d'erreurs en réception.*/
     78            
     79          /* Configurations du « Bit Timing » */                 
     80             EcrireRegistreMCP2515(MCP2515_CNF1, 0xC0); /* Registre 0xC0.
   \   00006D                ; Setup parameters for call to function CanBus::EcrireRegistreMCP2515(UC, UC)
   \   00006D   7CC0         MOV     R4,#-0x40
   \   00006F   792A         MOV     R1,#0x2a
   \   000071   EE           MOV     A,R6
   \   000072   FA           MOV     R2,A
   \   000073   EF           MOV     A,R7
   \   000074   FB           MOV     R3,A
   \   000075   12....       LCALL   ??EcrireRegistreMCP2515
     81                                      - SJW = 0 : 1 x TQ,
     82                                      - BRP = 3. */
     83             EcrireRegistreMCP2515(MCP2515_CNF2, 0x9A); /* Registre 0x9A.
   \   000078                ; Setup parameters for call to function CanBus::EcrireRegistreMCP2515(UC, UC)
   \   000078   7C9A         MOV     R4,#-0x66
   \   00007A   7929         MOV     R1,#0x29
   \   00007C   EE           MOV     A,R6
   \   00007D   FA           MOV     R2,A
   \   00007E   EF           MOV     A,R7
   \   00007F   FB           MOV     R3,A
   \   000080   12....       LCALL   ??EcrireRegistreMCP2515
     84                                      - BTLMODE = 1,
     85                                      - SAM = 0,
     86                                      - PHSEG1 = 2,
     87                                      - PRSEG  = 0. */
     88             EcrireRegistreMCP2515(MCP2515_CNF3, 0x07); /* Registre 0x07.
   \   000083                ; Setup parameters for call to function CanBus::EcrireRegistreMCP2515(UC, UC)
   \   000083   7C07         MOV     R4,#0x7
   \   000085   7928         MOV     R1,#0x28
   \   000087   EE           MOV     A,R6
   \   000088   FA           MOV     R2,A
   \   000089   EF           MOV     A,R7
   \   00008A   FB           MOV     R3,A
   \   00008B   12....       LCALL   ??EcrireRegistreMCP2515
     89                                      - SOF = 0 : Broche « CLKOUT » activée pour la fonction de répétition de l'horloge,
     90                                      - WAKFIL = 0 : Wake-up filter désactivé,
     91                                      - PHSEG : 2. */
     92          
     93          /* Configurations des interruptions du circuit MCP2515 */
     94             EcrireRegistreMCP2515(MCP2515_CANINTE, 0x01); /* Registre 0x2B.
   \   00008E                ; Setup parameters for call to function CanBus::EcrireRegistreMCP2515(UC, UC)
   \   00008E   7C01         MOV     R4,#0x1
   \   000090   792B         MOV     R1,#0x2b
   \   000092   EE           MOV     A,R6
   \   000093   FA           MOV     R2,A
   \   000094   EF           MOV     A,R7
   \   000095   FB           MOV     R3,A
   \   000096   12....       LCALL   ??EcrireRegistreMCP2515
     95                                      Autorisation des interruptions suite à la réception d'une donnée par le module « RXB0 ». */
     96             EcrireRegistreMCP2515(MCP2515_CANINTF, 0x00); /* Registre 0x2C.
   \   000099                ; Setup parameters for call to function CanBus::EcrireRegistreMCP2515(UC, UC)
   \   000099   7C00         MOV     R4,#0x0
   \   00009B   792C         MOV     R1,#0x2c
   \   00009D   EE           MOV     A,R6
   \   00009E   FA           MOV     R2,A
   \   00009F   EF           MOV     A,R7
   \   0000A0   FB           MOV     R3,A
   \   0000A1   12....       LCALL   ??EcrireRegistreMCP2515
     97                                       Acquittement des éventuelles interruptions qui seraient en attente .*/
     98             EcrireRegistreMCP2515(MCP2515_EFLG,     0x00); /* Registre 0x2D */
   \   0000A4                ; Setup parameters for call to function CanBus::EcrireRegistreMCP2515(UC, UC)
   \   0000A4   7C00         MOV     R4,#0x0
   \   0000A6   792D         MOV     R1,#0x2d
   \   0000A8   EE           MOV     A,R6
   \   0000A9   FA           MOV     R2,A
   \   0000AA   EF           MOV     A,R7
   \   0000AB   FB           MOV     R3,A
   \   0000AC   12....       LCALL   ??EcrireRegistreMCP2515
     99             EcrireRegistreMCP2515(MCP2515_RXB0CTRL, 0x20); /* Registre 0x60 */
   \   0000AF                ; Setup parameters for call to function CanBus::EcrireRegistreMCP2515(UC, UC)
   \   0000AF   7C20         MOV     R4,#0x20
   \   0000B1   7960         MOV     R1,#0x60
   \   0000B3   EE           MOV     A,R6
   \   0000B4   FA           MOV     R2,A
   \   0000B5   EF           MOV     A,R7
   \   0000B6   FB           MOV     R3,A
   \   0000B7   12....       LCALL   ??EcrireRegistreMCP2515
    100             
    101          /* Configuration initiale du module « TXB0 » */
    102             EcrireRegistreMCP2515(MCP2515_TXB0CTRL, 0x03); /* Registre 0x30.
   \   0000BA                ; Setup parameters for call to function CanBus::EcrireRegistreMCP2515(UC, UC)
   \   0000BA   7C03         MOV     R4,#0x3
   \   0000BC   7930         MOV     R1,#0x30
   \   0000BE   EE           MOV     A,R6
   \   0000BF   FA           MOV     R2,A
   \   0000C0   EF           MOV     A,R7
   \   0000C1   FB           MOV     R3,A
   \   0000C2   12....       LCALL   ??EcrireRegistreMCP2515
    103                                        TXP = 0b11 : les messages ont la plus haute priorité. */
    104             EcrireRegistreMCP2515(MCP2515_TXB0DLC, 0x01); /* Registre 0x35.
   \   0000C5                ; Setup parameters for call to function CanBus::EcrireRegistreMCP2515(UC, UC)
   \   0000C5   7C01         MOV     R4,#0x1
   \   0000C7   7935         MOV     R1,#0x35
   \   0000C9   EE           MOV     A,R6
   \   0000CA   FA           MOV     R2,A
   \   0000CB   EF           MOV     A,R7
   \   0000CC   FB           MOV     R3,A
   \   0000CD   12....       LCALL   ??EcrireRegistreMCP2515
    105                                       Nombre d'octets occupés par les données à envoyer : 1 octet.*/
    106                                
    107          /* Configurations de l'identifiant en réception par le filtre 0 du circuit MCP2515 */    
    108             EcrireRegistreMCP2515(MCP2515_RXF0SIDH, 0x00);   /* Registre 0x00.
   \   0000D0                ; Setup parameters for call to function CanBus::EcrireRegistreMCP2515(UC, UC)
   \   0000D0   7C00         MOV     R4,#0x0
   \   0000D2   7900         MOV     R1,#0x0
   \   0000D4   EE           MOV     A,R6
   \   0000D5   FA           MOV     R2,A
   \   0000D6   EF           MOV     A,R7
   \   0000D7   FB           MOV     R3,A
   \   0000D8   12....       LCALL   ??EcrireRegistreMCP2515
    109                                        Identifiant initial de réception H. */
    110             EcrireRegistreMCP2515(MCP2515_RXF0SIDL, 0x20);   /* Registre 0x01.
   \   0000DB                ; Setup parameters for call to function CanBus::EcrireRegistreMCP2515(UC, UC)
   \   0000DB   7C20         MOV     R4,#0x20
   \   0000DD   7901         MOV     R1,#0x1
   \   0000DF   EE           MOV     A,R6
   \   0000E0   FA           MOV     R2,A
   \   0000E1   EF           MOV     A,R7
   \   0000E2   FB           MOV     R3,A
   \   0000E3   12....       LCALL   ??EcrireRegistreMCP2515
    111                                        Identifiant initial de réception L + configurations initiales du mode de fonctionnement des identifiants en réceptions. */
    112          
    113          /* Configurations du masque de réception initial utilisé par le filtre 0 du circuit MCP2515 */
    114             EcrireRegistreMCP2515(MCP2515_RXM0SIDH, 0x00);   /* Registre 0x20.
   \   0000E6                ; Setup parameters for call to function CanBus::EcrireRegistreMCP2515(UC, UC)
   \   0000E6   7C00         MOV     R4,#0x0
   \   0000E8   7920         MOV     R1,#0x20
   \   0000EA   EE           MOV     A,R6
   \   0000EB   FA           MOV     R2,A
   \   0000EC   EF           MOV     A,R7
   \   0000ED   FB           MOV     R3,A
   \   0000EE   12....       LCALL   ??EcrireRegistreMCP2515
    115                                        Masque de réception initial H. */                              
    116             EcrireRegistreMCP2515(MCP2515_RXM0SIDL, 0x20);   /* Registre 0x21.
   \   0000F1                ; Setup parameters for call to function CanBus::EcrireRegistreMCP2515(UC, UC)
   \   0000F1   7C20         MOV     R4,#0x20
   \   0000F3   7921         MOV     R1,#0x21
   \   0000F5   EE           MOV     A,R6
   \   0000F6   FA           MOV     R2,A
   \   0000F7   EF           MOV     A,R7
   \   0000F8   FB           MOV     R3,A
   \   0000F9   12....       LCALL   ??EcrireRegistreMCP2515
    117                                        Masque de réception initial L. + configurations initiales du mode de fonctionnement des masque de réceptions. */
    118             
    119          /* Configurations de l'identifiant en émission par le module « TXB0 » du circuit MCP2515 */
    120             EcrireRegistreMCP2515(MCP2515_TXB0SIDH, 0x00);   /* Registre 0x31.
   \   0000FC                ; Setup parameters for call to function CanBus::EcrireRegistreMCP2515(UC, UC)
   \   0000FC   7C00         MOV     R4,#0x0
   \   0000FE   7931         MOV     R1,#0x31
   \   000100   EE           MOV     A,R6
   \   000101   FA           MOV     R2,A
   \   000102   EF           MOV     A,R7
   \   000103   FB           MOV     R3,A
   \   000104   12....       LCALL   ??EcrireRegistreMCP2515
    121                                        Identifiant initial d'émission H. */
    122             EcrireRegistreMCP2515(MCP2515_TXB0SIDL, 0x00);   /* Registre 0x32.
   \   000107                ; Setup parameters for call to function CanBus::EcrireRegistreMCP2515(UC, UC)
   \   000107   7C00         MOV     R4,#0x0
   \   000109   7932         MOV     R1,#0x32
   \   00010B   EE           MOV     A,R6
   \   00010C   FA           MOV     R2,A
   \   00010D   EF           MOV     A,R7
   \   00010E   FB           MOV     R3,A
   \   00010F   12....       LCALL   ??EcrireRegistreMCP2515
    123                                        Identifiant initial d'émission L + configurations initiales du mode de fonctionnement des identifiants en émissions. */
    124            
    125          /* Passage du circuit MCP2515 en « Normal Operation mode » */
    126             EcrireRegistreMCP2515(MCP2515_CANCTRL, 0x07); /* Registre 0x0F.
   \   000112                ; Setup parameters for call to function CanBus::EcrireRegistreMCP2515(UC, UC)
   \   000112   7C07         MOV     R4,#0x7
   \   000114   790F         MOV     R1,#0xf
   \   000116   EE           MOV     A,R6
   \   000117   FA           MOV     R2,A
   \   000118   EF           MOV     A,R7
   \   000119   FB           MOV     R3,A
   \   00011A   12....       LCALL   ??EcrireRegistreMCP2515
    127                                        - REQOP2 = 1,
    128                                        - REQOP1 = 0,
    129                                        - REQOP0 = 0 : le circuit est passé en « Normal Operation mode ». 
    130                                        - Les réglages précédemment évoqués restent inchangés. */        
    131          }
   \   00011D   7F01         MOV     R7,#0x1
   \   00011F   02....       LJMP    ?FUNC_LEAVE_XDATA
    132          

   \                                 In  segment NEAR_CODE, align 1, keep-with-next
    133          void CanBus :: EcrireRegistreMCP2515(UC Address, UC Data)
   \                     ??EcrireRegistreMCP2515:
    134          {
   \   000000   74F8         MOV     A,#-0x8
   \   000002   12....       LCALL   ?FUNC_ENTER_XDATA
   \   000005                ; Saved register size: 8
   \   000005                ; Auto size: 0
   \   000005   E9           MOV     A,R1
   \   000006   FF           MOV     R7,A
   \   000007   EC           MOV     A,R4
   \   000008   FE           MOV     R6,A
    135              WriteMPC2514(3, MCP2515_WRITE, Address, Data);   /* Envoi de 3 octets :
   \   000009                ; Setup parameters for call to function CLSPI::WriteMPC2514(UC, UC, UC, UC)
   \   000009   F5..         MOV     ?V0 + 0,A
   \   00000B   78..         MOV     R0,#?V0 + 0
   \   00000D   12....       LCALL   ?PUSH_XSTACK_I_ONE
   \   000010   EF           MOV     A,R7
   \   000011   FD           MOV     R5,A
   \   000012   7C02         MOV     R4,#0x2
   \   000014   7903         MOV     R1,#0x3
   \   000016   12....       LCALL   ??WriteMPC2514
   \   000019   7401         MOV     A,#0x1
   \   00001B   12....       LCALL   ?DEALLOC_XSTACK8
   \   00001E   E9           MOV     A,R1
    136                                                 - La commande d'écriture ;
    137                                                 - L'adresse du registre dans lequel écrire ;
    138                                                 - L'octet à écrire dans le registre. */ 
    139          }
   \   00001F   7F01         MOV     R7,#0x1
   \   000021   02....       LJMP    ?FUNC_LEAVE_XDATA
    140          

   \                                 In  segment NEAR_CODE, align 1, keep-with-next
    141          void CanBus :: ChoisirIdentifiantTX0(int Identifiant)
   \                     ??ChoisirIdentifiantTX0:
    142          {
   \   000000   74F7         MOV     A,#-0x9
   \   000002   12....       LCALL   ?FUNC_ENTER_XDATA
   \   000005                ; Saved register size: 9
   \   000005                ; Auto size: 0
   \   000005   8A82         MOV     DPL,R2
   \   000007   8B83         MOV     DPH,R3
   \   000009   EC           MOV     A,R4
   \   00000A   FA           MOV     R2,A
   \   00000B   ED           MOV     A,R5
   \   00000C   FB           MOV     R3,A
    143             unsigned char Contenu_MCP2515_TXB0SIDH = 0;
   \   00000D   7C00         MOV     R4,#0x0
    144             unsigned char Contenu_MCP2515_TXB0SIDL = 0;
   \   00000F   7E00         MOV     R6,#0x0
    145          
    146             // On récupère les 8 bits de poids fort de l'identifiant à configurer,
    147             // qui doivent être placés tels quels dans le registre « MCP2515_TXB0SIDH ». 
    148             Contenu_MCP2515_TXB0SIDH = (UC)(0x00FF & (Identifiant >> 3));   
   \   000011   8A..         MOV     ?V0 + 0,R2
   \   000013   8B..         MOV     ?V0 + 1,R3
   \   000015   7403         MOV     A,#0x3
   \   000017   78..         MOV     R0,#?V0 + 0
   \   000019   12....       LCALL   ?SS_SHR
   \   00001C   E5..         MOV     A,?V0 + 0
   \   00001E   AC..         MOV     R4,?V0 + 0
    149          
    150          // On récupère les 3 bits de poids faible de l'identifiant à configurer,
    151          // qui doivent être placés dans le registre « MCP2515_TXB0SIDL »,
    152          // aux bits « MCP2515_TXB0SIDL<5> », « MCP2515_TXB0SIDL<6> » et « MCP2515_TXB0SIDL<7> ».   
    153             Contenu_MCP2515_TXB0SIDL = (UC)(0x00E0 & (Identifiant << 5));   
   \   000020   EA           MOV     A,R2
   \   000021   C4           SWAP    A
   \   000022   33           RLC     A
   \   000023   54E0         ANL     A,#0xe0
   \   000025   FE           MOV     R6,A
    154             
    155             //Identifiant Emission H 
    156             EcrireRegistreMCP2515(MCP2515_TXB0SIDH, Contenu_MCP2515_TXB0SIDH);   
   \   000026                ; Setup parameters for call to function CanBus::EcrireRegistreMCP2515(UC, UC)
   \   000026   7931         MOV     R1,#0x31
   \   000028   AA82         MOV     R2,DPL
   \   00002A   AB83         MOV     R3,DPH
   \   00002C   12....       LCALL   ??EcrireRegistreMCP2515
    157             // Identifiant Emission L + Configurations du mode de fonctionnement des identifiants */  
    158             EcrireRegistreMCP2515(MCP2515_TXB0SIDL, Contenu_MCP2515_TXB0SIDL);   
   \   00002F                ; Setup parameters for call to function CanBus::EcrireRegistreMCP2515(UC, UC)
   \   00002F   EE           MOV     A,R6
   \   000030   FC           MOV     R4,A
   \   000031   7932         MOV     R1,#0x32
   \   000033   AA82         MOV     R2,DPL
   \   000035   AB83         MOV     R3,DPH
   \   000037   12....       LCALL   ??EcrireRegistreMCP2515
    159          }
   \   00003A   7F02         MOV     R7,#0x2
   \   00003C   02....       LJMP    ?FUNC_LEAVE_XDATA
    160          

   \                                 In  segment NEAR_CODE, align 1, keep-with-next
    161          void CanBus :: AcquitterInterruptionsMCP2515(void)
   \                     ??AcquitterInterruptionsMCP2515:
    162          {
   \   000000   C082         PUSH    DPL
   \   000002   C083         PUSH    DPH
   \   000004                ; Saved register size: 2
   \   000004                ; Auto size: 0
   \   000004   8A82         MOV     DPL,R2
   \   000006   8B83         MOV     DPH,R3
    163             EcrireRegistreMCP2515(MCP2515_CANCTRL, 0x87);   /* Registe 0x0F.
   \   000008                ; Setup parameters for call to function CanBus::EcrireRegistreMCP2515(UC, UC)
   \   000008   7C87         MOV     R4,#-0x79
   \   00000A   790F         MOV     R1,#0xf
   \   00000C   AA82         MOV     R2,DPL
   \   00000E   AB83         MOV     R3,DPH
   \   000010   12....       LCALL   ??EcrireRegistreMCP2515
    164             Le circuit est passé en « Configuration mode ». */
    165             EcrireRegistreMCP2515(MCP2515_CANINTF, 0x00);   /* Registre 0x2C.
   \   000013                ; Setup parameters for call to function CanBus::EcrireRegistreMCP2515(UC, UC)
   \   000013   7C00         MOV     R4,#0x0
   \   000015   792C         MOV     R1,#0x2c
   \   000017   AA82         MOV     R2,DPL
   \   000019   AB83         MOV     R3,DPH
   \   00001B   12....       LCALL   ??EcrireRegistreMCP2515
    166             Acquittement des interruptions du circuit MCP2515. */
    167             EcrireRegistreMCP2515(MCP2515_CANCTRL, 0x07);   /* Registe 0x0F.
   \   00001E                ; Setup parameters for call to function CanBus::EcrireRegistreMCP2515(UC, UC)
   \   00001E   7C07         MOV     R4,#0x7
   \   000020   790F         MOV     R1,#0xf
   \   000022   AA82         MOV     R2,DPL
   \   000024   AB83         MOV     R3,DPH
   \   000026   12....       LCALL   ??EcrireRegistreMCP2515
    168             Le circuit est passé en « Normal Operation mode ». */  
    169          }
   \   000029   D083         POP     DPH
   \   00002B   D082         POP     DPL
   \   00002D   22           RET
    170          

   \                                 In  segment NEAR_CODE, align 1, keep-with-next
    171          void CanBus :: SendMCP2515(const UC *Message)
   \                     ??SendMCP2515:
    172          {
   \   000000   74F1         MOV     A,#-0xf
   \   000002   12....       LCALL   ?FUNC_ENTER_XDATA
   \   000005                ; Saved register size: 15
   \   000005                ; Auto size: 0
   \   000005   EA           MOV     A,R2
   \   000006   FE           MOV     R6,A
   \   000007   EB           MOV     A,R3
   \   000008   FF           MOV     R7,A
   \   000009   8C..         MOV     ?V0 + 6,R4
   \   00000B   8D..         MOV     ?V0 + 7,R5
    173          UC TailleDuMessage = 0;
   \   00000D   75..00       MOV     ?V0 + 0,#0x0
    174          UC k;
    175          UC PointeurRegistre = MCP2515_TXB0D0;
   \   000010   75..36       MOV     ?V0 + 4,#0x36
    176          
    177             /* Détermination du nombre d'octets de données à transmettre, et limitation à 8 octets au maximum. */
    178          TailleDuMessage = Longueur(Message);
   \   000013                ; Setup parameters for call to function CanBus::Longueur(UC const *)
   \   000013   AC..         MOV     R4,?V0 + 6
   \   000015   AD..         MOV     R5,?V0 + 7
   \   000017   EE           MOV     A,R6
   \   000018   FA           MOV     R2,A
   \   000019   EF           MOV     A,R7
   \   00001A   FB           MOV     R3,A
   \   00001B   12....       LCALL   ??Longueur
   \   00001E   E9           MOV     A,R1
   \   00001F   F5..         MOV     ?V0 + 0,A
    179          
    180          if(TailleDuMessage > 8)   /* Si le nombre d'octets de données à transmettre dépasse le nombre maximal d'octets possible. */
   \   000021   E5..         MOV     A,?V0 + 0
   \   000023   C3           CLR     C
   \   000024   9409         SUBB    A,#0x9
   \   000026   4003         JC      ??SendMCP2515_1
    181            {
    182             TailleDuMessage = 8;   /* Le nombre maximal d'octets possible sera tranmis par le circuit MCP2515. */
   \   000028   75..08       MOV     ?V0 + 0,#0x8
    183            }
    184          
    185          EcrireRegistreMCP2515(MCP2515_TXB0DLC, TailleDuMessage);   /* Le MCP2515 est informé du nombre d'octets de données qu'il aura à tranmettre. */
   \                     ??SendMCP2515_1:
   \   00002B                ; Setup parameters for call to function CanBus::EcrireRegistreMCP2515(UC, UC)
   \   00002B   AC..         MOV     R4,?V0 + 0
   \   00002D   7935         MOV     R1,#0x35
   \   00002F   EE           MOV     A,R6
   \   000030   FA           MOV     R2,A
   \   000031   EF           MOV     A,R7
   \   000032   FB           MOV     R3,A
   \   000033   12....       LCALL   ??EcrireRegistreMCP2515
    186          
    187             /* Chargement du message dans le MCP2515 */
    188          for(k = 0; k < TailleDuMessage; k++)
   \   000036   75..00       MOV     ?V0 + 1,#0x0
   \   000039   8021         SJMP    ??SendMCP2515_2
    189            {
    190             EcrireRegistreMCP2515(PointeurRegistre, Message[k]);   /* Les registres de données du module « TXB0 »,
   \                     ??SendMCP2515_3:
   \   00003B                ; Setup parameters for call to function CanBus::EcrireRegistreMCP2515(UC, UC)
   \   00003B   85....       MOV     ?V0 + 2,?V0 + 1
   \   00003E   75..00       MOV     ?V0 + 3,#0x0
   \   000041   E5..         MOV     A,?V0 + 6
   \   000043   25..         ADD     A,?V0 + 2
   \   000045   F582         MOV     DPL,A
   \   000047   E5..         MOV     A,?V0 + 7
   \   000049   35..         ADDC    A,?V0 + 3
   \   00004B   F583         MOV     DPH,A
   \   00004D   E0           MOVX    A,@DPTR
   \   00004E   FC           MOV     R4,A
   \   00004F   A9..         MOV     R1,?V0 + 4
   \   000051   EE           MOV     A,R6
   \   000052   FA           MOV     R2,A
   \   000053   EF           MOV     A,R7
   \   000054   FB           MOV     R3,A
   \   000055   12....       LCALL   ??EcrireRegistreMCP2515
    191             dont les adresses sont consécutives, sont remplis,
    192             en commencant par le registre « MCP2515_TXB0D0 », d'adresse 0x36. */
    193             PointeurRegistre++;
   \   000058   05..         INC     ?V0 + 4
    194             }
   \   00005A   05..         INC     ?V0 + 1
   \                     ??SendMCP2515_2:
   \   00005C   E5..         MOV     A,?V0 + 1
   \   00005E   C3           CLR     C
   \   00005F   95..         SUBB    A,?V0 + 0
   \   000061   40D8         JC      ??SendMCP2515_3
    195          
    196          /* Envoi de la commande « RTS », qui consiste en l'envoi de l'octet « 0xC0 », par le bus SPI. */
    197          WriteMPC2514(1, MCP2515_RTS_TX0, 0x00, 0x00);
   \   000063                ; Setup parameters for call to function CLSPI::WriteMPC2514(UC, UC, UC, UC)
   \   000063   75..00       MOV     ?V0 + 0,#0x0
   \   000066   78..         MOV     R0,#?V0 + 0
   \   000068   12....       LCALL   ?PUSH_XSTACK_I_ONE
   \   00006B   7D00         MOV     R5,#0x0
   \   00006D   7C81         MOV     R4,#-0x7f
   \   00006F   7901         MOV     R1,#0x1
   \   000071   EE           MOV     A,R6
   \   000072   FA           MOV     R2,A
   \   000073   EF           MOV     A,R7
   \   000074   FB           MOV     R3,A
   \   000075   12....       LCALL   ??WriteMPC2514
   \   000078   7401         MOV     A,#0x1
   \   00007A   12....       LCALL   ?DEALLOC_XSTACK8
   \   00007D   E9           MOV     A,R1
    198          Delai(10);  
   \   00007E                ; Setup parameters for call to function CanBus::Delai(unsigned long)
   \   00007E   90....       MOV     DPTR,#__Constant_a
   \   000081   12....       LCALL   ?PUSH_XSTACK8_X_FOUR
   \   000084   EE           MOV     A,R6
   \   000085   FA           MOV     R2,A
   \   000086   EF           MOV     A,R7
   \   000087   FB           MOV     R3,A
   \   000088   12....       LCALL   ??Delai
   \   00008B   7404         MOV     A,#0x4
   \   00008D   12....       LCALL   ?DEALLOC_XSTACK8
    199          }
   \   000090   7F08         MOV     R7,#0x8
   \   000092   02....       LJMP    ?FUNC_LEAVE_XDATA
    200          
    201          
    202          
    203          
    204          
    205          
    206          
    207          
    208          
    209          
    210          
    211          
    212          
    213          
    214          
    215          
    216          
    217          

   \                                 In  segment NEAR_CODE, align 1, keep-with-next
    218          UC CanBus :: Longueur(const UC *Contenu)
   \                     ??Longueur:
    219          {
   \   000000   74F7         MOV     A,#-0x9
   \   000002   12....       LCALL   ?FUNC_ENTER_XDATA
   \   000005                ; Saved register size: 9
   \   000005                ; Auto size: 0
    220          UC Compteur = 0;
   \   000005   7900         MOV     R1,#0x0
   \   000007   8001         SJMP    ??Longueur_1
    221          
    222          while(Contenu[Compteur] != '\0')
    223            {
    224             Compteur++;
   \                     ??Longueur_2:
   \   000009   09           INC     R1
    225            }
   \                     ??Longueur_1:
   \   00000A   89..         MOV     ?V0 + 0,R1
   \   00000C   75..00       MOV     ?V0 + 1,#0x0
   \   00000F   EC           MOV     A,R4
   \   000010   25..         ADD     A,?V0 + 0
   \   000012   F582         MOV     DPL,A
   \   000014   ED           MOV     A,R5
   \   000015   35..         ADDC    A,?V0 + 1
   \   000017   F583         MOV     DPH,A
   \   000019   E0           MOVX    A,@DPTR
   \   00001A   70ED         JNZ     ??Longueur_2
    226          return(Compteur);  
   \   00001C   7F02         MOV     R7,#0x2
   \   00001E   02....       LJMP    ?FUNC_LEAVE_XDATA
    227          }
    228          

   \                                 In  segment NEAR_CODE, align 1, keep-with-next
    229          void CanBus :: Delai(unsigned long Temps)
   \                     ??Delai:
    230          {
   \   000000   74F1         MOV     A,#-0xf
   \   000002   12....       LCALL   ?FUNC_ENTER_XDATA
   \   000005                ; Saved register size: 15
   \   000005                ; Auto size: 0
   \   000005   740F         MOV     A,#0xf
   \   000007   12....       LCALL   ?XSTACK_DISP0_8
   \   00000A   78..         MOV     R0,#?V0 + 0
   \   00000C   12....       LCALL   ?L_MOV_X
    231          unsigned long k;
    232          for(k = 0; k < Temps; k++);  
   \   00000F   90....       MOV     DPTR,#__Constant_0
   \   000012   78..         MOV     R0,#?V0 + 4
   \   000014   12....       LCALL   ?L_MOV_X
   \   000017   8008         SJMP    ??Delai_1
   \                     ??Delai_2:
   \   000019   90....       MOV     DPTR,#__Constant_1
   \   00001C   78..         MOV     R0,#?V0 + 4
   \   00001E   12....       LCALL   ?L_ADD_X
   \                     ??Delai_1:
   \   000021   78..         MOV     R0,#?V0 + 0
   \   000023   79..         MOV     R1,#?V0 + 4
   \   000025   12....       LCALL   ?UL_GT
   \   000028   40EF         JC      ??Delai_2
    233          }
   \   00002A   7F08         MOV     R7,#0x8
   \   00002C   02....       LJMP    ?FUNC_LEAVE_XDATA

   \                                 In  segment XDATA_I, align 1, keep-with-next
   \                     __Constant_3e8:
   \   000000                DS 4
   \   000004                REQUIRE `?<Initializer for __Constant_3e8>`
   \   000004                REQUIRE __INIT_XDATA_I

   \                                 In  segment XDATA_ID, align 1, keep-with-next
   \                     `?<Initializer for __Constant_3e8>`:
   \   000000   E8030000     DD 1000

   \                                 In  segment XDATA_I, align 1, keep-with-next
   \                     __Constant_a:
   \   000000                DS 4
   \   000004                REQUIRE `?<Initializer for __Constant_a>`
   \   000004                REQUIRE __INIT_XDATA_I

   \                                 In  segment XDATA_ID, align 1, keep-with-next
   \                     `?<Initializer for __Constant_a>`:
   \   000000   0A000000     DD 10

   \                                 In  segment XDATA_I, align 1, keep-with-next
   \                     __Constant_0:
   \   000000                DS 4
   \   000004                REQUIRE `?<Initializer for __Constant_0>`
   \   000004                REQUIRE __INIT_XDATA_I

   \                                 In  segment XDATA_ID, align 1, keep-with-next
   \                     `?<Initializer for __Constant_0>`:
   \   000000   00000000     DD 0

   \                                 In  segment XDATA_I, align 1, keep-with-next
   \                     __Constant_1:
   \   000000                DS 4
   \   000004                REQUIRE `?<Initializer for __Constant_1>`
   \   000004                REQUIRE __INIT_XDATA_I

   \                                 In  segment XDATA_ID, align 1, keep-with-next
   \                     `?<Initializer for __Constant_1>`:
   \   000000   01000000     DD 1

   \                                 In  segment NEAR_CODE, align 1, keep-with-next
   \   __near_func __xdata_reentrant CanBus &CanBus::new CanBus()
   \                     `??new CanBus`:
   \   000000   C0..         PUSH    ?V0 + 0
   \   000002   C0..         PUSH    ?V0 + 1
   \   000004                ; Saved register size: 2
   \   000004                ; Auto size: 0
   \   000004                ; Setup parameters for call to function operator new(unsigned int)
   \   000004   7A01         MOV     R2,#0x1
   \   000006   7B00         MOV     R3,#0x0
   \   000008   12....       LCALL   `??operator new`
   \   00000B   8A..         MOV     ?V0 + 0,R2
   \   00000D   8B..         MOV     ?V0 + 1,R3
   \   00000F   A8..         MOV     R0,?V0 + 0
   \   000011   A9..         MOV     R1,?V0 + 1
   \   000013   E8           MOV     A,R0
   \   000014   FA           MOV     R2,A
   \   000015   E9           MOV     A,R1
   \   000016   FB           MOV     R3,A
   \   000017   E8           MOV     A,R0
   \   000018   49           ORL     A,R1
   \   000019   600D         JZ      `??new CanBus_2`
   \   00001B                ; Setup parameters for call to function CanBus::CanBus()
   \   00001B   12....       LCALL   ??CanBus
   \   00001E   8A..         MOV     ?V0 + 0,R2
   \   000020   8B..         MOV     ?V0 + 1,R3
   \   000022   AA..         MOV     R2,?V0 + 0
   \   000024   AB..         MOV     R3,?V0 + 1
   \   000026   8004         SJMP    `??new CanBus_3`
   \                     `??new CanBus_2`:
   \   000028   7A00         MOV     R2,#0x0
   \   00002A   7B00         MOV     R3,#0x0
   \                     `??new CanBus_3`:
   \   00002C   D0..         POP     ?V0 + 1
   \   00002E   D0..         POP     ?V0 + 0
   \   000030   22           RET

   \                                 In  segment NEAR_CODE, align 1, keep-with-next
   \   __near_func __xdata_reentrant CanBus &CanBus::new CanBus(UC)
   \                     `??new CanBus_1`:
   \   000000   74F7         MOV     A,#-0x9
   \   000002   12....       LCALL   ?FUNC_ENTER_XDATA
   \   000005                ; Saved register size: 9
   \   000005                ; Auto size: 0
   \   000005   E9           MOV     A,R1
   \   000006   FE           MOV     R6,A
   \   000007                ; Setup parameters for call to function operator new(unsigned int)
   \   000007   7A01         MOV     R2,#0x1
   \   000009   7B00         MOV     R3,#0x0
   \   00000B   12....       LCALL   `??operator new`
   \   00000E   8A..         MOV     ?V0 + 0,R2
   \   000010   8B..         MOV     ?V0 + 1,R3
   \   000012   A8..         MOV     R0,?V0 + 0
   \   000014   A9..         MOV     R1,?V0 + 1
   \   000016   E8           MOV     A,R0
   \   000017   FA           MOV     R2,A
   \   000018   E9           MOV     A,R1
   \   000019   FB           MOV     R3,A
   \   00001A   E8           MOV     A,R0
   \   00001B   49           ORL     A,R1
   \   00001C   600F         JZ      `??new CanBus_4`
   \   00001E                ; Setup parameters for call to function CanBus::CanBus(UC)
   \   00001E   EE           MOV     A,R6
   \   00001F   F9           MOV     R1,A
   \   000020   12....       LCALL   ??CanBus_1
   \   000023   8A..         MOV     ?V0 + 0,R2
   \   000025   8B..         MOV     ?V0 + 1,R3
   \   000027   AA..         MOV     R2,?V0 + 0
   \   000029   AB..         MOV     R3,?V0 + 1
   \   00002B   8004         SJMP    `??new CanBus_5`
   \                     `??new CanBus_4`:
   \   00002D   7A00         MOV     R2,#0x0
   \   00002F   7B00         MOV     R3,#0x0
   \                     `??new CanBus_5`:
   \   000031   7F02         MOV     R7,#0x2
   \   000033   02....       LJMP    ?FUNC_LEAVE_XDATA

   \                                 In  segment NEAR_CODE, align 1, keep-with-next
   \   __near_func __xdata_reentrant void CanBus::delete ~CanBus(CanBus *)
   \                     `??delete ~CanBus`:
   \   000000   74F8         MOV     A,#-0x8
   \   000002   12....       LCALL   ?FUNC_ENTER_XDATA
   \   000005                ; Saved register size: 8
   \   000005                ; Auto size: 0
   \   000005   EA           MOV     A,R2
   \   000006   FE           MOV     R6,A
   \   000007   EB           MOV     A,R3
   \   000008   FF           MOV     R7,A
   \   000009   EE           MOV     A,R6
   \   00000A   4F           ORL     A,R7
   \   00000B   600E         JZ      `??delete ~CanBus_1`
   \   00000D                ; Setup parameters for call to function CanBus::~CanBus()
   \   00000D   EE           MOV     A,R6
   \   00000E   FA           MOV     R2,A
   \   00000F   EF           MOV     A,R7
   \   000010   FB           MOV     R3,A
   \   000011   12....       LCALL   `?~CanBus`
   \   000014                ; Setup parameters for call to function operator delete(void *)
   \   000014   EE           MOV     A,R6
   \   000015   FA           MOV     R2,A
   \   000016   EF           MOV     A,R7
   \   000017   FB           MOV     R3,A
   \   000018   12....       LCALL   `??operator delete`
   \                     `??delete ~CanBus_1`:
   \   00001B   7F01         MOV     R7,#0x1
   \   00001D   02....       LJMP    ?FUNC_LEAVE_XDATA
    234          
    235          //LinuxLinuxLinuxLinuxLinuxLinuxLinuxLinuxLinuxLinuxLinuxLinuxLinuxLinuxLinuxTUX

   Maximum stack usage in bytes:

     Function                       ISTACK PSTACK XSTACK
     --------                       ------ ------ ------
     CanBus::AcquitterInterruptionsMCP2515()
                                        2      0      0
       -> CanBus::EcrireRegistreMCP2515(UC, UC)
                                        4      0      0
       -> CanBus::EcrireRegistreMCP2515(UC, UC)
                                        4      0      0
       -> CanBus::EcrireRegistreMCP2515(UC, UC)
                                        4      0      0
     CanBus::CanBus()                   0      0      9
       -> CLSPI::CLSPI()                0      0     18
       -> CLSPI::CLSPI()                0      0     18
       -> CanBus::MCP24515_init()       0      0     18
       -> CanBus::ChoisirIdentifiantTX0(int)
                                        0      0     18
       -> CLSPI::~CLSPI()               0      0     18
     CanBus::CanBus(UC)                 2      0      9
       -> CLSPI::CLSPI()                4      0      0
     CanBus::ChoisirIdentifiantTX0(int)
                                        0      0     18
       -> CanBus::EcrireRegistreMCP2515(UC, UC)
                                        0      0     18
       -> CanBus::EcrireRegistreMCP2515(UC, UC)
                                        0      0     18
     CanBus::Delai(unsigned long)       0      0     34
     CanBus::EcrireRegistreMCP2515(UC, UC)
                                        0      0     24
       -> CLSPI::WriteMPC2514(UC, UC, UC, UC)
                                        0      0     18
     CanBus::Longueur(UC const *)       0      0     24
     CanBus::MCP24515_init()            0      0     21
       -> CLSPI::WriteMPC2514(UC, UC, UC, UC)
                                        0      0     18
       -> CanBus::Delai(unsigned long)
                                        0      0     24
       -> CanBus::EcrireRegistreMCP2515(UC, UC)
                                        0      0     16
       -> CanBus::EcrireRegistreMCP2515(UC, UC)
                                        0      0     16
       -> CanBus::EcrireRegistreMCP2515(UC, UC)
                                        0      0     16
       -> CanBus::EcrireRegistreMCP2515(UC, UC)
                                        0      0     16
       -> CanBus::EcrireRegistreMCP2515(UC, UC)
                                        0      0     16
       -> CanBus::EcrireRegistreMCP2515(UC, UC)
                                        0      0     16
       -> CanBus::EcrireRegistreMCP2515(UC, UC)
                                        0      0     16
       -> CanBus::EcrireRegistreMCP2515(UC, UC)
                                        0      0     16
       -> CanBus::EcrireRegistreMCP2515(UC, UC)
                                        0      0     16
       -> CanBus::EcrireRegistreMCP2515(UC, UC)
                                        0      0     16
       -> CanBus::EcrireRegistreMCP2515(UC, UC)
                                        0      0     16
       -> CanBus::EcrireRegistreMCP2515(UC, UC)
                                        0      0     16
       -> CanBus::EcrireRegistreMCP2515(UC, UC)
                                        0      0     16
       -> CanBus::EcrireRegistreMCP2515(UC, UC)
                                        0      0     16
       -> CanBus::EcrireRegistreMCP2515(UC, UC)
                                        0      0     16
       -> CanBus::EcrireRegistreMCP2515(UC, UC)
                                        0      0     16
       -> CanBus::EcrireRegistreMCP2515(UC, UC)
                                        0      0     16
       -> CanBus::EcrireRegistreMCP2515(UC, UC)
                                        0      0     16
       -> CanBus::EcrireRegistreMCP2515(UC, UC)
                                        0      0     16
       -> CanBus::EcrireRegistreMCP2515(UC, UC)
                                        0      0     16
       -> CanBus::EcrireRegistreMCP2515(UC, UC)
                                        0      0     16
     CanBus::SendMCP2515(UC const *)
                                        0      0     19
       -> CanBus::Longueur(UC const *)
                                        0      0     30
       -> CanBus::EcrireRegistreMCP2515(UC, UC)
                                        0      0     30
       -> CanBus::EcrireRegistreMCP2515(UC, UC)
                                        0      0     30
       -> CLSPI::WriteMPC2514(UC, UC, UC, UC)
                                        0      0     32
       -> CanBus::Delai(unsigned long)
                                        0      0     38
     CanBus::delete ~CanBus(CanBus *)
                                        0      0      8
       -> CanBus::~CanBus()             0      0     16
       -> operator delete(void *)       0      0     16
     CanBus::new CanBus()               2      0      0
       -> operator new(unsigned int)
                                        4      0      0
       -> CanBus::CanBus()              4      0      0
     CanBus::new CanBus(UC)             0      0      9
       -> operator new(unsigned int)
                                        0      0     18
       -> CanBus::CanBus(UC)            0      0     18
     CanBus::~CanBus()                  0      0      8
       -> CLSPI::~CLSPI()               0      0      0


   Segment part sizes:

     Function/Label                    Bytes
     --------------                    -----
     CanBus::CanBus()                    79
     CanBus::CanBus(UC)                  24
     CanBus::~CanBus()                    3
     CanBus::MCP24515_init()            290
     CanBus::EcrireRegistreMCP2515(UC, UC)
                                         36
     CanBus::ChoisirIdentifiantTX0(int)
                                         63
     CanBus::AcquitterInterruptionsMCP2515()
                                         46
     CanBus::SendMCP2515(UC const *)
                                        149
     CanBus::Longueur(UC const *)        33
     CanBus::Delai(unsigned long)        47
     __Constant_3e8                       4
     ?<Initializer for __Constant_3e8>    4
     __Constant_a                         4
     ?<Initializer for __Constant_a>      4
     __Constant_0                         4
     ?<Initializer for __Constant_0>      4
     __Constant_1                         4
     ?<Initializer for __Constant_1>      4
     CanBus::new CanBus()                49
     CanBus::new CanBus(UC)              54
     CanBus::delete ~CanBus(CanBus *)
                                         32

 
 905 bytes in segment NEAR_CODE
  16 bytes in segment XDATA_I
  16 bytes in segment XDATA_ID
 
 905 bytes of CODE  memory (+ 16 bytes shared)
   0 bytes of XDATA memory (+ 16 bytes shared)

Errors: none
Warnings: none
