///////////////////////////////////////////////////////////////////////////////
//                                                                            /
// IAR C/C++ Compiler V8.10.1.40194/W32 for 8051        25/Oct/2014  17:28:35 /
// Copyright 2004-2011 IAR Systems AB.                                        /
//                                                                            /
//    Core               =  plain                                             /
//    Code model         =  near                                              /
//    Data model         =  large                                             /
//    Calling convention =  xdata reentrant                                   /
//    Constant location  =  data                                              /
//    Dptr setup         =  1,16                                              /
//    Source file        =  C:\Synchro\Dropbox\Travaux\Automne                /
//                          2014\Fonctions\Projet Accumulatif                 /
//                          IAR\CLCommunic.cpp                                /
//    Command line       =  "C:\Synchro\Dropbox\Travaux\Automne               /
//                          2014\Fonctions\Projet Accumulatif                 /
//                          IAR\CLCommunic.cpp" -D UPSD3254A --preprocess=cl  /
//                          "C:\Synchro\Dropbox\Travaux\Automne               /
//                          2014\Fonctions\Projet Accumulatif                 /
//                          IAR\UPSD\List\" -lC "C:\Synchro\Dropbox\Travaux\A /
//                          utomne 2014\Fonctions\Projet Accumulatif          /
//                          IAR\UPSD\List\" -lA "C:\Synchro\Dropbox\Travaux\A /
//                          utomne 2014\Fonctions\Projet Accumulatif          /
//                          IAR\UPSD\List\" -o "C:\Synchro\Dropbox\Travaux\Au /
//                          tomne 2014\Fonctions\Projet Accumulatif           /
//                          IAR\UPSD\Obj\" -e --no_cse --no_unroll            /
//                          --no_inline --no_code_motion --no_tbaa --debug    /
//                          --core=plain --dptr=16,1 --data_model=large       /
//                          --code_model=near --calling_convention=xdata_reen /
//                          trant --place_constants=data --nr_virtual_regs 8  /
//                          --dlib_config "C:\Program Files (x86)\IAR         /
//                          Systems\Embedded Workbench                        /
//                          6.0\8051\LIB\DLIB\dl8051Normal.h" -Ol --eec++     /
//    List file          =  C:\Synchro\Dropbox\Travaux\Automne                /
//                          2014\Fonctions\Projet Accumulatif                 /
//                          IAR\UPSD\List\CLCommunic.s51                      /
//                                                                            /
//                                                                            /
///////////////////////////////////////////////////////////////////////////////

        NAME CLCommunic

        RTMODEL "__SystemLibrary", "DLib"
        RTMODEL "__calling_convention", "xdata_reentrant"
        RTMODEL "__code_model", "near"
        RTMODEL "__core", "plain"
        RTMODEL "__data_model", "large"
        RTMODEL "__dptr_size", "16"
        RTMODEL "__extended_stack", "disabled"
        RTMODEL "__location_for_constants", "data"
        RTMODEL "__number_of_dptrs", "1"
        RTMODEL "__rt_version", "1"

        RSEG DOVERLAY:DATA:NOROOT(0)
        RSEG IOVERLAY:IDATA:NOROOT(0)
        RSEG ISTACK:IDATA:NOROOT(0)
        RSEG PSTACK:XDATA:NOROOT(0)
        RSEG XSTACK:XDATA:NOROOT(0)

        ERROR
//NOTE: This module defines or uses C++ features that are not
//      accessible from assembler code. Assembling this file will
//      not produce an equivalent object file to the one produced
//      by the C++ compiler.

        EXTERN ?DEALLOC_XSTACK8
        EXTERN ?FUNC_ENTER_XDATA
        EXTERN ?FUNC_LEAVE_XDATA
        EXTERN ?INTERRUPT_ENTER_XSP
        EXTERN ?INTERRUPT_LEAVE_XSP
        EXTERN ?PUSH_XSTACK_I_TWO
        EXTERN ?US_DIV_MOD
        EXTERN ?US_SWITCH_SPARSE
        EXTERN ?V0
        EXTERN ?XSTACK_DISP0_8
        EXTERN __INIT_XDATA_I
        EXTERN __INIT_XDATA_Z

        PUBLIC ??CLCommunic
        FUNCTION ??CLCommunic,021203H
        ARGFRAME XSTACK, 0, STACK
        ARGFRAME IOVERLAY, 0, STATIC
        ARGFRAME DOVERLAY, 0, STATIC
        LOCFRAME XSTACK, 8, STACK
        PUBLIC ??CLCommunic_1
        FUNCTION ??CLCommunic_1,021203H
        ARGFRAME XSTACK, 13, STACK
        ARGFRAME IOVERLAY, 0, STATIC
        ARGFRAME DOVERLAY, 0, STATIC
        LOCFRAME XSTACK, 13, STACK
        PUBLIC ??cTabCaractereRecu
        PUBLIC ??cpDebutTrame
        PUBLIC ??cpFinTrame
        PUBLIC ??cptrEcriture
        PUBLIC ??cptrLecture
        PUBLIC `??delete ~CLCommunic`
        FUNCTION `??delete ~CLCommunic`,021203H
        ARGFRAME XSTACK, 0, STACK
        LOCFRAME XSTACK, 8, STACK
        PUBLIC `??new CLCommunic`
        FUNCTION `??new CLCommunic`,021203H
        ARGFRAME XSTACK, 0, STACK
        LOCFRAME ISTACK, 2, STACK
        PUBLIC `??new CLCommunic_1`
        FUNCTION `??new CLCommunic_1`,021203H
        ARGFRAME XSTACK, 0, STACK
        LOCFRAME XSTACK, 13, STACK
        PUBLIC ??ucCaractereRecu
        PUBLIC ??ucEtatReception
        PUBLIC ??ucEtatTrame
        PUBLIC ??ucInitLongTrame
        FUNCTION ??ucInitLongTrame,0203H
        ARGFRAME XSTACK, 13, STACK
        ARGFRAME IOVERLAY, 0, STATIC
        ARGFRAME DOVERLAY, 0, STATIC
        LOCFRAME ISTACK, 2, STACK
        PUBLIC ??ucLireEtatReception
        FUNCTION ??ucLireEtatReception,0203H
        ARGFRAME XSTACK, 0, STACK
        LOCFRAME ISTACK, 2, STACK
        PUBLIC ??ucLireEtatTrame
        FUNCTION ??ucLireEtatTrame,0203H
        ARGFRAME XSTACK, 0, STACK
        LOCFRAME ISTACK, 2, STACK
        PUBLIC ??ucLireNbCaractRecu
        FUNCTION ??ucLireNbCaractRecu,0203H
        ARGFRAME XSTACK, 0, STACK
        ARGFRAME IOVERLAY, 0, STATIC
        ARGFRAME DOVERLAY, 0, STATIC
        LOCFRAME ISTACK, 2, STACK
        PUBLIC ??ucLireTrameSansCheck
        FUNCTION ??ucLireTrameSansCheck,0203H
        ARGFRAME XSTACK, 0, STACK
        LOCFRAME ISTACK, 2, STACK
        PUBLIC ??ucLongueurTampon
        PUBLIC ??ucLongueurTrame
        PUBLIC ??ucNbCaractRecu
        PUBLIC ??ucValideTrame
        FUNCTION ??ucValideTrame,0203H
        ARGFRAME XSTACK, 0, STACK
        ARGFRAME IOVERLAY, 0, STATIC
        ARGFRAME DOVERLAY, 0, STATIC
        LOCFRAME ISTACK, 2, STACK
        PUBLIC ??ucpLireTrame
        FUNCTION ??ucpLireTrame,021203H
        ARGFRAME XSTACK, 0, STACK
        LOCFRAME ISTACK, 2, STACK
        PUBLIC ??vAffChaine
        FUNCTION ??vAffChaine,021203H
        ARGFRAME XSTACK, 0, STACK
        LOCFRAME XSTACK, 8, STACK
        PUBLIC ??vInitBaudRate
        FUNCTION ??vInitBaudRate,080203H
        ARGFRAME XSTACK, 13, STACK
        ARGFRAME IOVERLAY, 0, STATIC
        ARGFRAME DOVERLAY, 0, STATIC
        LOCFRAME XSTACK, 9, STACK
        PUBLIC ??vInteruptSerial
        FUNCTION ??vInteruptSerial,021233H
        ARGFRAME XSTACK, 0, STACK
        LOCFRAME ISTACK, 17, STACK
        PUBWEAK `??vInteruptSerial??INTVEC 35`
        PUBLIC ??vTransCaratere
        FUNCTION ??vTransCaratere,0203H
        ARGFRAME XSTACK, 10, STACK
        ARGFRAME IOVERLAY, 0, STATIC
        ARGFRAME DOVERLAY, 0, STATIC
        PUBLIC ??vTransChiffre
        FUNCTION ??vTransChiffre,021203H
        ARGFRAME XSTACK, 0, STACK
        LOCFRAME XSTACK, 10, STACK
        PUBLIC `?~CLCommunic`
        FUNCTION `?~CLCommunic`,021203H
        ARGFRAME XSTACK, 8, STACK
        ARGFRAME IOVERLAY, 0, STATIC
        ARGFRAME DOVERLAY, 0, STATIC
        LOCFRAME ISTACK, 2, STACK
        PUBWEAK SBUF
        PUBWEAK TH1
        PUBWEAK _A_IE
        PUBWEAK _A_PCON
        PUBWEAK _A_SCON
        PUBWEAK _A_TCON
        PUBWEAK _A_TMOD
        
        CFI Names cfiNames0
        CFI StackFrame CFA_SP SP IDATA
        CFI StackFrame CFA_PSP16 PSP16 XDATA
        CFI StackFrame CFA_XSP16 XSP16 XDATA
        CFI StaticOverlayFrame CFA_IOVERLAY IOVERLAY
        CFI StaticOverlayFrame CFA_DOVERLAY DOVERLAY
        CFI Resource `PSW.CY`:1, `B.BR0`:1, `B.BR1`:1, `B.BR2`:1, `B.BR3`:1
        CFI Resource `B.BR4`:1, `B.BR5`:1, `B.BR6`:1, `B.BR7`:1, `VB.BR8`:1
        CFI Resource `VB.BR9`:1, `VB.BR10`:1, `VB.BR11`:1, `VB.BR12`:1
        CFI Resource `VB.BR13`:1, `VB.BR14`:1, `VB.BR15`:1, VB:8, B:8, A:8
        CFI Resource PSW:8, DPL0:8, DPH0:8, R0:8, R1:8, R2:8, R3:8, R4:8, R5:8
        CFI Resource R6:8, R7:8, V0:8, V1:8, V2:8, V3:8, V4:8, V5:8, V6:8, V7:8
        CFI Resource SP:8, PSPH:8, PSPL:8, PSP16:16, XSPH:8, XSPL:8, XSP16:16
        CFI VirtualResource ?RET:16, ?RET_HIGH:8, ?RET_LOW:8
        CFI ResourceParts PSP16 PSPH, PSPL
        CFI ResourceParts XSP16 XSPH, XSPL
        CFI ResourceParts ?RET ?RET_HIGH, ?RET_LOW
        CFI EndNames cfiNames0
        
        CFI Common cfiCommon0 Using cfiNames0
        CFI CodeAlign 1
        CFI DataAlign -1
        CFI ReturnAddress ?RET CODE
        CFI CFA_DOVERLAY Used
        CFI CFA_IOVERLAY Used
        CFI CFA_SP SP+-2
        CFI CFA_PSP16 PSP16+0
        CFI CFA_XSP16 XSP16+0
        CFI `PSW.CY` SameValue
        CFI `B.BR0` SameValue
        CFI `B.BR1` SameValue
        CFI `B.BR2` SameValue
        CFI `B.BR3` SameValue
        CFI `B.BR4` SameValue
        CFI `B.BR5` SameValue
        CFI `B.BR6` SameValue
        CFI `B.BR7` SameValue
        CFI `VB.BR8` SameValue
        CFI `VB.BR9` SameValue
        CFI `VB.BR10` SameValue
        CFI `VB.BR11` SameValue
        CFI `VB.BR12` SameValue
        CFI `VB.BR13` SameValue
        CFI `VB.BR14` SameValue
        CFI `VB.BR15` SameValue
        CFI VB SameValue
        CFI B Undefined
        CFI A Undefined
        CFI PSW SameValue
        CFI DPL0 SameValue
        CFI DPH0 SameValue
        CFI R0 Undefined
        CFI R1 Undefined
        CFI R2 Undefined
        CFI R3 Undefined
        CFI R4 Undefined
        CFI R5 Undefined
        CFI R6 SameValue
        CFI R7 SameValue
        CFI V0 SameValue
        CFI V1 SameValue
        CFI V2 SameValue
        CFI V3 SameValue
        CFI V4 SameValue
        CFI V5 SameValue
        CFI V6 SameValue
        CFI V7 SameValue
        CFI PSPH Undefined
        CFI PSPL Undefined
        CFI XSPH Undefined
        CFI XSPL Undefined
        CFI ?RET Concat
        CFI ?RET_HIGH Frame(CFA_SP, 2)
        CFI ?RET_LOW Frame(CFA_SP, 1)
        CFI EndCommon cfiCommon0
        
        
        CFI Common cfiCommon1 Using cfiNames0
        CFI CodeAlign 1
        CFI DataAlign -1
        CFI ReturnAddress ?RET CODE
        CFI CFA_DOVERLAY Used
        CFI CFA_IOVERLAY Used
        CFI CFA_SP SP+-2
        CFI CFA_PSP16 PSP16+0
        CFI CFA_XSP16 XSP16+0
        CFI `PSW.CY` SameValue
        CFI `B.BR0` SameValue
        CFI `B.BR1` SameValue
        CFI `B.BR2` SameValue
        CFI `B.BR3` SameValue
        CFI `B.BR4` SameValue
        CFI `B.BR5` SameValue
        CFI `B.BR6` SameValue
        CFI `B.BR7` SameValue
        CFI `VB.BR8` SameValue
        CFI `VB.BR9` SameValue
        CFI `VB.BR10` SameValue
        CFI `VB.BR11` SameValue
        CFI `VB.BR12` SameValue
        CFI `VB.BR13` SameValue
        CFI `VB.BR14` SameValue
        CFI `VB.BR15` SameValue
        CFI VB SameValue
        CFI B SameValue
        CFI A SameValue
        CFI PSW SameValue
        CFI DPL0 SameValue
        CFI DPH0 SameValue
        CFI R0 SameValue
        CFI R1 SameValue
        CFI R2 SameValue
        CFI R3 SameValue
        CFI R4 SameValue
        CFI R5 SameValue
        CFI R6 SameValue
        CFI R7 SameValue
        CFI V0 SameValue
        CFI V1 SameValue
        CFI V2 SameValue
        CFI V3 SameValue
        CFI V4 SameValue
        CFI V5 SameValue
        CFI V6 SameValue
        CFI V7 SameValue
        CFI PSPH Undefined
        CFI PSPL Undefined
        CFI XSPH Undefined
        CFI XSPL Undefined
        CFI ?RET Concat
        CFI ?RET_HIGH Frame(CFA_SP, 2)
        CFI ?RET_LOW Frame(CFA_SP, 1)
        CFI EndCommon cfiCommon1
        
`?<Name CLCommunic 6>` SYMBOL "CLCommunic"
??cTabCaractereRecu SYMBOL "cTabCaractereRecu", `?<Name CLCommunic 6>`
??cpDebutTrame      SYMBOL "cpDebutTrame", `?<Name CLCommunic 6>`
??cpFinTrame        SYMBOL "cpFinTrame", `?<Name CLCommunic 6>`
??cptrEcriture      SYMBOL "cptrEcriture", `?<Name CLCommunic 6>`
??cptrLecture       SYMBOL "cptrLecture", `?<Name CLCommunic 6>`
??ucCaractereRecu   SYMBOL "ucCaractereRecu", `?<Name CLCommunic 6>`
??ucEtatReception   SYMBOL "ucEtatReception", `?<Name CLCommunic 6>`
??ucEtatTrame       SYMBOL "ucEtatTrame", `?<Name CLCommunic 6>`
??ucLongueurTampon  SYMBOL "ucLongueurTampon", `?<Name CLCommunic 6>`
??ucLongueurTrame   SYMBOL "ucLongueurTrame", `?<Name CLCommunic 6>`
??ucNbCaractRecu    SYMBOL "ucNbCaractRecu", `?<Name CLCommunic 6>`

`??vInteruptSerial??INTVEC 35` SYMBOL "??INTVEC 35", ??vInteruptSerial

        EXTERN `??operator new`
        FUNCTION `??operator new`,010202H
        ARGFRAME ISTACK, 2, STACK
        ARGFRAME PSTACK, 0, STACK
        ARGFRAME XSTACK, 11, STACK
        ARGFRAME IOVERLAY, 0, STATIC
        ARGFRAME DOVERLAY, 0, STATIC
        EXTERN `??operator delete`
        FUNCTION `??operator delete`,010202H
        ARGFRAME ISTACK, 2, STACK
        ARGFRAME PSTACK, 0, STACK
        ARGFRAME XSTACK, 8, STACK
        ARGFRAME IOVERLAY, 0, STATIC
        ARGFRAME DOVERLAY, 0, STATIC
        EXTERN `??operator new[]`
        FUNCTION `??operator new[]`,010202H
        ARGFRAME ISTACK, 0, STACK
        ARGFRAME PSTACK, 0, STACK
        ARGFRAME XSTACK, 13, STACK
        ARGFRAME IOVERLAY, 0, STATIC
        ARGFRAME DOVERLAY, 0, STATIC

// C:\Synchro\Dropbox\Travaux\Automne 2014\Fonctions\Projet Accumulatif IAR\CLCommunic.cpp
//    1 //**********************  Fichier: CLCommunic.cpp
//    2 //  Description : Fonctions necessaire pour communiquer avec le port serie:
//    3 //
//    4 // 
//    5 //CLCommunic()                                          Constructeur par defaut
//    6 //CLCommunic(UC ucLongBuf, UC ucLongTrame, UI uiBaud)  Construct initialisateur
//    7 //~CLCommunic()                                                     Destructeur 
//    8 //UC ucInitLongTrame(UC ucLong)                 Pour initialiser longueur trame
//    9 //UC static ucLireNbCaractRecu()         Fct pour lire nombre de caractere recu
//   10 //UC ucLireEtatTrame()                         Fct pour lire l'etat de la trame
//   11 //char *ucpLireTrame()                Fct qui retourne adresse du debut lecture
//   12 //vTransCaratere(UC ucCar)                    Fct pour transmettre un caractere
//   13 //vTransChiffre(UI uiChiffreAAfficher)          Fct pour transmettre un chiffre 
//   14 //vAffChaine(char const *ucpMessage)   Fct pour transmettre chaine de caractere
//   15 //void vInitBaudRate(UI uiBaud)        Fct pour intialiser le baudrate et timer
//   16 //__interrupt static void vInteruptSerial();     Fct pour recevoir un caractere
//   17 //UC ucValideTrame()                                 Fct pour valider une trame
//   18 //
//   19 //  Composition: aucune
//   20 //  Heritage : aucun
//   21 //
//   22 //  Programmeur: Philippe Dubois
//   23 //  Cours: 247-436
//   24 //                                                                           
//   25 //  Date: 10 avril 2014
//   26 //                                                                           //
//   27 //  Compilateur: IAR 8.1                                  
//   28 //                                                                           //
//   29 //  Modification:                                                            //
//   30 //                                                                           //
//   31 ///////////////////////////////////////////////////////////////////////////////
//   32 #include "CLCommunic.h"             //inclue CLCommunic.h.

        ASEGN SFR_AN:DATA:NOROOT,0a8H
// union <unnamed> volatile __sfr _A_IE
_A_IE:
        DATA8
        DS 1

        ASEGN SFR_AN:DATA:NOROOT,099H
// unsigned char volatile __sfr SBUF
SBUF:
        DATA8
        DS 1

        ASEGN SFR_AN:DATA:NOROOT,098H
// union <unnamed> volatile __sfr _A_SCON
_A_SCON:
        DATA8
        DS 1

        ASEGN SFR_AN:DATA:NOROOT,087H
// union <unnamed> volatile __sfr _A_PCON
_A_PCON:
        DATA8
        DS 1

        ASEGN SFR_AN:DATA:NOROOT,088H
// union <unnamed> volatile __sfr _A_TCON
_A_TCON:
        DATA8
        DS 1

        ASEGN SFR_AN:DATA:NOROOT,08dH
// unsigned char volatile __sfr TH1
TH1:
        DATA8
        DS 1

        ASEGN SFR_AN:DATA:NOROOT,089H
// union <unnamed> volatile __sfr _A_TMOD
_A_TMOD:
        DATA8
        DS 1
//   33 #include "ConversionKeilToIAR.h"
//   34 
//   35  ///// Initialise les variables statiques.

        RSEG XDATA_Z:XDATA:NOROOT(0)
        DATA8
//   36 UC    CLCommunic :: ucEtatTrame       = INCOMPLET;      // Trame incomplete.
??ucEtatTrame:
        DS 1
        REQUIRE __INIT_XDATA_Z

        RSEG XDATA_Z:XDATA:NOROOT(0)
        DATA8
//   37 UC    CLCommunic :: ucNbCaractRecu    = 0;              // Nombre de caractere recu = 0
??ucNbCaractRecu:
        DS 1
        REQUIRE __INIT_XDATA_Z

        RSEG XDATA_I:XDATA:NOROOT(0)
//   38 UC    CLCommunic :: ucLongueurTrame   = LONGUEURTRAME;  // Initialise les longueur du 
??ucLongueurTrame:
        DATA8
        DS 1
        REQUIRE `?<Initializer for ucLongueurTrame>`
        REQUIRE __INIT_XDATA_I

        RSEG XDATA_I:XDATA:NOROOT(0)
//   39 UC    CLCommunic :: ucLongueurTampon  = LONGUEURTAMPON; // buffer et trame.
??ucLongueurTampon:
        DATA8
        DS 1
        REQUIRE `?<Initializer for ucLongueurTampon>`
        REQUIRE __INIT_XDATA_I

        RSEG XDATA_Z:XDATA:NOROOT(0)
        DATA8
//   40 UC    CLCommunic :: ucCaractereRecu   = NULL;
??ucCaractereRecu:
        DS 1
        REQUIRE __INIT_XDATA_Z

        RSEG XDATA_Z:XDATA:NOROOT(0)
        DATA8
//   41 UC    CLCommunic :: ucEtatReception   = INACTIF;
??ucEtatReception:
        DS 1
        REQUIRE __INIT_XDATA_Z

        RSEG XDATA_Z:XDATA:NOROOT(0)
        DATA16
//   42 char *CLCommunic :: cpDebutTrame      = NULL;           // Initialise lse pointeur a NULL.
??cpDebutTrame:
        DS 2
        REQUIRE __INIT_XDATA_Z

        RSEG XDATA_Z:XDATA:NOROOT(0)
        DATA16
//   43 char *CLCommunic :: cpFinTrame        = NULL;
??cpFinTrame:
        DS 2
        REQUIRE __INIT_XDATA_Z

        RSEG XDATA_Z:XDATA:NOROOT(0)
        DATA16
//   44 char *CLCommunic :: cptrEcriture      = NULL;
??cptrEcriture:
        DS 2
        REQUIRE __INIT_XDATA_Z

        RSEG XDATA_Z:XDATA:NOROOT(0)
        DATA16
//   45 char *CLCommunic :: cptrLecture       = NULL;
??cptrLecture:
        DS 2
        REQUIRE __INIT_XDATA_Z

        RSEG XDATA_Z:XDATA:NOROOT(0)
        DATA16
//   46 char *CLCommunic :: cTabCaractereRecu = NULL;
??cTabCaractereRecu:
        DS 2
        REQUIRE __INIT_XDATA_Z

        RSEG NEAR_CODE:CODE:NOROOT(0)
// __near_func __xdata_reentrant CLCommunic &CLCommunic::new CLCommunic()
`??new CLCommunic`:
        CFI Block cfiBlock0 Using cfiCommon0
        CFI Function `??new CLCommunic`
        CODE
        FUNCALL `??new CLCommunic`, `??operator new`
        LOCFRAME ISTACK, 2, STACK
        LOCFRAME PSTACK, 0, STACK
        LOCFRAME XSTACK, 0, STACK
        LOCFRAME IOVERLAY, 0, STATIC
        LOCFRAME DOVERLAY, 0, STATIC
        ARGFRAME ISTACK, 2, STACK
        ARGFRAME PSTACK, 0, STACK
        ARGFRAME XSTACK, 0, STACK
        ARGFRAME IOVERLAY, 0, STATIC
        ARGFRAME DOVERLAY, 0, STATIC
        FUNCALL `??new CLCommunic`, ??CLCommunic
        LOCFRAME ISTACK, 2, STACK
        LOCFRAME PSTACK, 0, STACK
        LOCFRAME XSTACK, 0, STACK
        LOCFRAME IOVERLAY, 0, STATIC
        LOCFRAME DOVERLAY, 0, STATIC
        ARGFRAME ISTACK, 2, STACK
        ARGFRAME PSTACK, 0, STACK
        ARGFRAME XSTACK, 0, STACK
        ARGFRAME IOVERLAY, 0, STATIC
        ARGFRAME DOVERLAY, 0, STATIC
        PUSH    ?V0 + 0
        CFI V0 Frame(CFA_SP, 3)
        CFI CFA_SP SP+-3
        PUSH    ?V0 + 1
        CFI V1 Frame(CFA_SP, 4)
        CFI CFA_SP SP+-4
        ; Saved register size: 2
        ; Auto size: 0
        ; Setup parameters for call to function operator new(unsigned int)
        MOV     R2,#0x1
        MOV     R3,#0x0
        LCALL   `??operator new`
        MOV     ?V0 + 0,R2
        MOV     ?V0 + 1,R3
        MOV     R0,?V0 + 0
        MOV     R1,?V0 + 1
        MOV     A,R0
        MOV     R2,A
        MOV     A,R1
        MOV     R3,A
        MOV     A,R0
        ORL     A,R1
        JZ      `??new CLCommunic_2`
        ; Setup parameters for call to function CLCommunic::CLCommunic()
        LCALL   ??CLCommunic
        MOV     ?V0 + 0,R2
        MOV     ?V0 + 1,R3
        MOV     R2,?V0 + 0
        MOV     R3,?V0 + 1
        SJMP    `??new CLCommunic_3`
`??new CLCommunic_2`:
        MOV     R2,#0x0
        MOV     R3,#0x0
`??new CLCommunic_3`:
        POP     ?V0 + 1
        CFI V1 SameValue
        CFI CFA_SP SP+-3
        POP     ?V0 + 0
        CFI V0 SameValue
        CFI CFA_SP SP+-2
        RET
        CFI EndBlock cfiBlock0

        RSEG NEAR_CODE:CODE:NOROOT(0)
// __near_func __xdata_reentrant CLCommunic &CLCommunic::new CLCommunic(UC, UC, UI)
`??new CLCommunic_1`:
        CFI Block cfiBlock1 Using cfiCommon0
        CFI Function `??new CLCommunic_1`
        CODE
        FUNCALL `??new CLCommunic_1`, `??operator new`
        LOCFRAME ISTACK, 0, STACK
        LOCFRAME PSTACK, 0, STACK
        LOCFRAME XSTACK, 11, STACK
        LOCFRAME IOVERLAY, 0, STATIC
        LOCFRAME DOVERLAY, 0, STATIC
        ARGFRAME ISTACK, 0, STACK
        ARGFRAME PSTACK, 0, STACK
        ARGFRAME XSTACK, 11, STACK
        ARGFRAME IOVERLAY, 0, STATIC
        ARGFRAME DOVERLAY, 0, STATIC
        FUNCALL `??new CLCommunic_1`, ??CLCommunic_1
        LOCFRAME ISTACK, 0, STACK
        LOCFRAME PSTACK, 0, STACK
        LOCFRAME XSTACK, 13, STACK
        LOCFRAME IOVERLAY, 0, STATIC
        LOCFRAME DOVERLAY, 0, STATIC
        ARGFRAME ISTACK, 0, STACK
        ARGFRAME PSTACK, 0, STACK
        ARGFRAME XSTACK, 13, STACK
        ARGFRAME IOVERLAY, 0, STATIC
        ARGFRAME DOVERLAY, 0, STATIC
        MOV     A,#-0xb
        LCALL   ?FUNC_ENTER_XDATA
        CFI DPH0 load(1, XDATA, add(CFA_XSP16, literal(-1)))
        CFI DPL0 load(1, XDATA, add(CFA_XSP16, literal(-2)))
        CFI ?RET_HIGH load(1, XDATA, add(CFA_XSP16, literal(-3)))
        CFI ?RET_LOW load(1, XDATA, add(CFA_XSP16, literal(-4)))
        CFI R7 load(1, XDATA, add(CFA_XSP16, literal(-5)))
        CFI V3 load(1, XDATA, add(CFA_XSP16, literal(-6)))
        CFI V2 load(1, XDATA, add(CFA_XSP16, literal(-7)))
        CFI V1 load(1, XDATA, add(CFA_XSP16, literal(-8)))
        CFI V0 load(1, XDATA, add(CFA_XSP16, literal(-9)))
        CFI VB load(1, XDATA, add(CFA_XSP16, literal(-10)))
        CFI R6 load(1, XDATA, add(CFA_XSP16, literal(-11)))
        CFI CFA_SP SP+0
        CFI CFA_XSP16 add(XSP16, 11)
        ; Saved register size: 11
        ; Auto size: 0
        MOV     A,R1
        MOV     R6,A
        MOV     A,R2
        MOV     R7,A
        MOV     ?V0 + 0,R4
        MOV     ?V0 + 1,R5
        ; Setup parameters for call to function operator new(unsigned int)
        MOV     R2,#0x1
        MOV     R3,#0x0
        LCALL   `??operator new`
        MOV     ?V0 + 2,R2
        MOV     ?V0 + 3,R3
        MOV     R0,?V0 + 2
        MOV     R1,?V0 + 3
        MOV     A,R0
        MOV     R2,A
        MOV     A,R1
        MOV     R3,A
        MOV     A,R0
        ORL     A,R1
        JZ      `??new CLCommunic_4`
        ; Setup parameters for call to function CLCommunic::CLCommunic(UC, UC, UI)
        MOV     R0,#?V0 + 0
        LCALL   ?PUSH_XSTACK_I_TWO
        CFI CFA_XSP16 add(XSP16, 13)
        MOV     A,R7
        MOV     R4,A
        MOV     A,R6
        MOV     R1,A
        LCALL   ??CLCommunic_1
        MOV     A,#0x2
        LCALL   ?DEALLOC_XSTACK8
        CFI CFA_XSP16 add(XSP16, 11)
        MOV     ?V0 + 0,R2
        MOV     ?V0 + 1,R3
        MOV     R2,?V0 + 0
        MOV     R3,?V0 + 1
        SJMP    `??new CLCommunic_5`
`??new CLCommunic_4`:
        MOV     R2,#0x0
        MOV     R3,#0x0
`??new CLCommunic_5`:
        MOV     R7,#0x4
        LJMP    ?FUNC_LEAVE_XDATA
        CFI EndBlock cfiBlock1

        RSEG NEAR_CODE:CODE:NOROOT(0)
// __near_func __xdata_reentrant void CLCommunic::delete ~CLCommunic(CLCommunic *)
`??delete ~CLCommunic`:
        CFI Block cfiBlock2 Using cfiCommon0
        CFI Function `??delete ~CLCommunic`
        CODE
        FUNCALL `??delete ~CLCommunic`, `?~CLCommunic`
        LOCFRAME ISTACK, 0, STACK
        LOCFRAME PSTACK, 0, STACK
        LOCFRAME XSTACK, 8, STACK
        LOCFRAME IOVERLAY, 0, STATIC
        LOCFRAME DOVERLAY, 0, STATIC
        ARGFRAME ISTACK, 0, STACK
        ARGFRAME PSTACK, 0, STACK
        ARGFRAME XSTACK, 8, STACK
        ARGFRAME IOVERLAY, 0, STATIC
        ARGFRAME DOVERLAY, 0, STATIC
        FUNCALL `??delete ~CLCommunic`, `??operator delete`
        LOCFRAME ISTACK, 0, STACK
        LOCFRAME PSTACK, 0, STACK
        LOCFRAME XSTACK, 8, STACK
        LOCFRAME IOVERLAY, 0, STATIC
        LOCFRAME DOVERLAY, 0, STATIC
        ARGFRAME ISTACK, 0, STACK
        ARGFRAME PSTACK, 0, STACK
        ARGFRAME XSTACK, 8, STACK
        ARGFRAME IOVERLAY, 0, STATIC
        ARGFRAME DOVERLAY, 0, STATIC
        MOV     A,#-0x8
        LCALL   ?FUNC_ENTER_XDATA
        CFI DPH0 load(1, XDATA, add(CFA_XSP16, literal(-1)))
        CFI DPL0 load(1, XDATA, add(CFA_XSP16, literal(-2)))
        CFI ?RET_HIGH load(1, XDATA, add(CFA_XSP16, literal(-3)))
        CFI ?RET_LOW load(1, XDATA, add(CFA_XSP16, literal(-4)))
        CFI R7 load(1, XDATA, add(CFA_XSP16, literal(-5)))
        CFI V0 load(1, XDATA, add(CFA_XSP16, literal(-6)))
        CFI VB load(1, XDATA, add(CFA_XSP16, literal(-7)))
        CFI R6 load(1, XDATA, add(CFA_XSP16, literal(-8)))
        CFI CFA_SP SP+0
        CFI CFA_XSP16 add(XSP16, 8)
        ; Saved register size: 8
        ; Auto size: 0
        MOV     A,R2
        MOV     R6,A
        MOV     A,R3
        MOV     R7,A
        MOV     A,R6
        ORL     A,R7
        JZ      `??delete ~CLCommunic_1`
        ; Setup parameters for call to function CLCommunic::~CLCommunic()
        MOV     A,R6
        MOV     R2,A
        MOV     A,R7
        MOV     R3,A
        LCALL   `?~CLCommunic`
        ; Setup parameters for call to function operator delete(void *)
        MOV     A,R6
        MOV     R2,A
        MOV     A,R7
        MOV     R3,A
        LCALL   `??operator delete`
`??delete ~CLCommunic_1`:
        MOV     R7,#0x1
        LJMP    ?FUNC_LEAVE_XDATA
        CFI EndBlock cfiBlock2
//   47 
//   48 
//   49 //*****************************************************************************
//   50 // Nom de la fct:   CLCommunic(void)
//   51 // Description:     Constructeur qui permet d'initialiser par defaut le port  
//   52 //                  serie du micro controleur a  9600 bdr, un tampon de 12
//   53 //                  et une trame a 4 characteres. Initialise les differents
//   54 //                  pointeurs au debut et la la fin du tampon.
//   55 //
//   56 // INCLUDE:         #include "_TypeCible.h", "CLCommunic.h" 
//   57 // Prototype:       CLCommunic(void);
//   58 //
//   59 //
//   60 // Parametre d'entree: Aucune
//   61 //                     
//   62 // Parametre de sortie: Aucune
//   63 //
//   64 // Procedure appelees: vInitBaudRate(), 
//   65 //                     
//   66 // Exemple d'appel: class CLCommunic clCommunic();
//   67 //
//   68 // Fait par: Philippe Dubois
//   69 // Date:            10 avril 2014       
//   70 // Revision :       A      
//   71 // Modification : 
//   72 //***************************************************************************** 

        RSEG NEAR_CODE:CODE:NOROOT(0)
//   73 CLCommunic :: CLCommunic(void)
??CLCommunic:
        CFI Block cfiBlock3 Using cfiCommon0
        CFI Function ??CLCommunic
        CODE
//   74 {
        FUNCALL ??CLCommunic, `??operator new[]`
        LOCFRAME ISTACK, 0, STACK
        LOCFRAME PSTACK, 0, STACK
        LOCFRAME XSTACK, 8, STACK
        LOCFRAME IOVERLAY, 0, STATIC
        LOCFRAME DOVERLAY, 0, STATIC
        ARGFRAME ISTACK, 0, STACK
        ARGFRAME PSTACK, 0, STACK
        ARGFRAME XSTACK, 8, STACK
        ARGFRAME IOVERLAY, 0, STATIC
        ARGFRAME DOVERLAY, 0, STATIC
        FUNCALL ??CLCommunic, ??vInitBaudRate
        LOCFRAME ISTACK, 0, STACK
        LOCFRAME PSTACK, 0, STACK
        LOCFRAME XSTACK, 8, STACK
        LOCFRAME IOVERLAY, 0, STATIC
        LOCFRAME DOVERLAY, 0, STATIC
        ARGFRAME ISTACK, 0, STACK
        ARGFRAME PSTACK, 0, STACK
        ARGFRAME XSTACK, 8, STACK
        ARGFRAME IOVERLAY, 0, STATIC
        ARGFRAME DOVERLAY, 0, STATIC
        MOV     A,#-0x8
        LCALL   ?FUNC_ENTER_XDATA
        CFI DPH0 load(1, XDATA, add(CFA_XSP16, literal(-1)))
        CFI DPL0 load(1, XDATA, add(CFA_XSP16, literal(-2)))
        CFI ?RET_HIGH load(1, XDATA, add(CFA_XSP16, literal(-3)))
        CFI ?RET_LOW load(1, XDATA, add(CFA_XSP16, literal(-4)))
        CFI R7 load(1, XDATA, add(CFA_XSP16, literal(-5)))
        CFI V0 load(1, XDATA, add(CFA_XSP16, literal(-6)))
        CFI VB load(1, XDATA, add(CFA_XSP16, literal(-7)))
        CFI R6 load(1, XDATA, add(CFA_XSP16, literal(-8)))
        CFI CFA_SP SP+0
        CFI CFA_XSP16 add(XSP16, 8)
        ; Saved register size: 8
        ; Auto size: 0
        MOV     A,R2
        MOV     R6,A
        MOV     A,R3
        MOV     R7,A
//   75  cTabCaractereRecu = new char[LONGUEURTAMPON]; // Definit tableau de longueur
        ; Setup parameters for call to function operator new[](unsigned int)
        MOV     R2,#0xc
        MOV     R3,#0x0
        LCALL   `??operator new[]`
        MOV     DPTR,#??cTabCaractereRecu
        MOV     A,R2
        MOVX    @DPTR,A
        INC     DPTR
        MOV     A,R3
        MOVX    @DPTR,A
//   76                                                // LONGUEURTAMPON.
//   77  ucLongueurTrame  = LONGUEURTRAME;             // Definit longueur de la trame.
        MOV     DPTR,#??ucLongueurTrame
        MOV     A,#0x4
        MOVX    @DPTR,A
//   78  ucLongueurTampon = LONGUEURTAMPON;            // Definit longueur tampon.
        MOV     DPTR,#??ucLongueurTampon
        MOV     A,#0xc
        MOVX    @DPTR,A
//   79  
//   80  cpDebutTrame = &cTabCaractereRecu[0];                  // Pointeur sur debut tampon.
        MOV     DPTR,#??cTabCaractereRecu
        MOVX    A,@DPTR
        MOV     R0,A
        INC     DPTR
        MOVX    A,@DPTR
        MOV     R1,A
        MOV     DPTR,#??cpDebutTrame
        MOV     A,R0
        MOVX    @DPTR,A
        INC     DPTR
        MOV     A,R1
        MOVX    @DPTR,A
//   81  cpFinTrame   = &cTabCaractereRecu[(LONGUEURTAMPON-1)]; // Pointeur sur fin tampon
        MOV     DPTR,#??cTabCaractereRecu
        MOVX    A,@DPTR
        ADD     A,#0xb
        MOV     R0,A
        INC     DPTR
        MOVX    A,@DPTR
        ADDC    A,#0x0
        MOV     R1,A
        MOV     DPTR,#??cpFinTrame
        MOV     A,R0
        MOVX    @DPTR,A
        INC     DPTR
        MOV     A,R1
        MOVX    @DPTR,A
//   82  cptrEcriture = &cTabCaractereRecu[0];                  // Pointeur ecriture au debut.
        MOV     DPTR,#??cTabCaractereRecu
        MOVX    A,@DPTR
        MOV     R0,A
        INC     DPTR
        MOVX    A,@DPTR
        MOV     R1,A
        MOV     DPTR,#??cptrEcriture
        MOV     A,R0
        MOVX    @DPTR,A
        INC     DPTR
        MOV     A,R1
        MOVX    @DPTR,A
//   83  cptrLecture  = &cTabCaractereRecu[0];                  // Pointeur lecture au debut.
        MOV     DPTR,#??cTabCaractereRecu
        MOVX    A,@DPTR
        MOV     R0,A
        INC     DPTR
        MOVX    A,@DPTR
        MOV     R1,A
        MOV     DPTR,#??cptrLecture
        MOV     A,R0
        MOVX    @DPTR,A
        INC     DPTR
        MOV     A,R1
        MOVX    @DPTR,A
//   84  
//   85  vInitBaudRate(9600);                                   // Initialise le port serie.
        ; Setup parameters for call to function CLCommunic::vInitBaudRate(UI)
        MOV     R4,#-0x80
        MOV     R5,#0x25
        MOV     A,R6
        MOV     R2,A
        MOV     A,R7
        MOV     R3,A
        LCALL   ??vInitBaudRate
//   86 }
        MOV     A,R6
        MOV     R2,A
        MOV     A,R7
        MOV     R3,A
        MOV     R7,#0x1
        LJMP    ?FUNC_LEAVE_XDATA
        CFI EndBlock cfiBlock3
//   87 
//   88 
//   89 //*****************************************************************************
//   90 // Nom de la fct:   CLCommunic
//   91 // Description:     Constructeur qui permet d'initialiser  le port  
//   92 //                  serie du micro controleur a  la vitesse voulue, un tampon 
//   93 //                  de taille dynamique et la longueur de la trame.
//   94 //                  Initialise les differents pointeurs au debut et la la fin 
//   95 //                  du tampon.
//   96 //
//   97 // INCLUDE:         #include "_TypeCible.h", "CLCommunic.h" 
//   98 // Prototype:     CLCommunic(UC ucLongBuf, UC ucLongTrame, UI uiBaud);  
//   99 //
//  100 //
//  101 // Parametre d'entree: ucLongBuf pour longueur du trableau
//  102 //                     ucLongTrame pour longueur trame
//  103 //                     uiBaud pour la vitesse du port serie
//  104 //
//  105 // Parametre de sortie: Aucune
//  106 //
//  107 // Procedure appelees: vInitBaudRate(), ucInitLongTrame()
//  108 //                     
//  109 // Exemple d'appel: class CLCommunic clCommunic();
//  110 //
//  111 // Fait par: Philippe Dubois
//  112 // Date:            10 avril 2014       
//  113 // Revision :       A      
//  114 // Modification : 
//  115 //*****************************************************************************

        RSEG NEAR_CODE:CODE:NOROOT(0)
//  116 CLCommunic :: CLCommunic(UC ucLongBuf, UC ucLongTrame, UI uiBaud)
??CLCommunic_1:
        CFI Block cfiBlock4 Using cfiCommon0
        CFI Function ??CLCommunic_1
        CODE
//  117 {
        FUNCALL ??CLCommunic_1, `??operator new[]`
        LOCFRAME ISTACK, 0, STACK
        LOCFRAME PSTACK, 0, STACK
        LOCFRAME XSTACK, 13, STACK
        LOCFRAME IOVERLAY, 0, STATIC
        LOCFRAME DOVERLAY, 0, STATIC
        ARGFRAME ISTACK, 0, STACK
        ARGFRAME PSTACK, 0, STACK
        ARGFRAME XSTACK, 13, STACK
        ARGFRAME IOVERLAY, 0, STATIC
        ARGFRAME DOVERLAY, 0, STATIC
        FUNCALL ??CLCommunic_1, ??ucInitLongTrame
        LOCFRAME ISTACK, 0, STACK
        LOCFRAME PSTACK, 0, STACK
        LOCFRAME XSTACK, 13, STACK
        LOCFRAME IOVERLAY, 0, STATIC
        LOCFRAME DOVERLAY, 0, STATIC
        ARGFRAME ISTACK, 0, STACK
        ARGFRAME PSTACK, 0, STACK
        ARGFRAME XSTACK, 13, STACK
        ARGFRAME IOVERLAY, 0, STATIC
        ARGFRAME DOVERLAY, 0, STATIC
        FUNCALL ??CLCommunic_1, ??vInitBaudRate
        LOCFRAME ISTACK, 0, STACK
        LOCFRAME PSTACK, 0, STACK
        LOCFRAME XSTACK, 13, STACK
        LOCFRAME IOVERLAY, 0, STATIC
        LOCFRAME DOVERLAY, 0, STATIC
        ARGFRAME ISTACK, 0, STACK
        ARGFRAME PSTACK, 0, STACK
        ARGFRAME XSTACK, 13, STACK
        ARGFRAME IOVERLAY, 0, STATIC
        ARGFRAME DOVERLAY, 0, STATIC
        MOV     A,#-0xd
        LCALL   ?FUNC_ENTER_XDATA
        CFI DPH0 load(1, XDATA, add(CFA_XSP16, literal(-1)))
        CFI DPL0 load(1, XDATA, add(CFA_XSP16, literal(-2)))
        CFI ?RET_HIGH load(1, XDATA, add(CFA_XSP16, literal(-3)))
        CFI ?RET_LOW load(1, XDATA, add(CFA_XSP16, literal(-4)))
        CFI R7 load(1, XDATA, add(CFA_XSP16, literal(-5)))
        CFI V5 load(1, XDATA, add(CFA_XSP16, literal(-6)))
        CFI V4 load(1, XDATA, add(CFA_XSP16, literal(-7)))
        CFI V3 load(1, XDATA, add(CFA_XSP16, literal(-8)))
        CFI V2 load(1, XDATA, add(CFA_XSP16, literal(-9)))
        CFI V1 load(1, XDATA, add(CFA_XSP16, literal(-10)))
        CFI V0 load(1, XDATA, add(CFA_XSP16, literal(-11)))
        CFI VB load(1, XDATA, add(CFA_XSP16, literal(-12)))
        CFI R6 load(1, XDATA, add(CFA_XSP16, literal(-13)))
        CFI CFA_SP SP+0
        CFI CFA_XSP16 add(XSP16, 13)
        ; Saved register size: 13
        ; Auto size: 0
        MOV     ?V0 + 0,R2
        MOV     ?V0 + 1,R3
        MOV     ?V0 + 2,R1
        MOV     ?V0 + 3,R4
        MOV     A,#0xd
        LCALL   ?XSTACK_DISP0_8
        MOVX    A,@DPTR
        MOV     R6,A
        INC     DPTR
        MOVX    A,@DPTR
        MOV     R7,A
//  118  cTabCaractereRecu = new char[ucLongBuf]; // Initialise un tableau de longueur
        ; Setup parameters for call to function operator new[](unsigned int)
        MOV     ?V0 + 4,?V0 + 2
        MOV     ?V0 + 5,#0x0
        MOV     R2,?V0 + 4
        MOV     R3,?V0 + 5
        LCALL   `??operator new[]`
        MOV     DPTR,#??cTabCaractereRecu
        MOV     A,R2
        MOVX    @DPTR,A
        INC     DPTR
        MOV     A,R3
        MOVX    @DPTR,A
//  119                                           // voulue.
//  120  ucLongueurTampon = ucLongBuf;            // Longueur tampon = ucLongBuf.
        MOV     A,?V0 + 2
        MOV     DPTR,#??ucLongueurTampon
        MOVX    @DPTR,A
//  121  ucInitLongTrame(ucLongTrame);            // Verifie si longueur trame 
        ; Setup parameters for call to function CLCommunic::ucInitLongTrame(UC)
        MOV     R1,?V0 + 3
        MOV     R2,?V0 + 0
        MOV     R3,?V0 + 1
        LCALL   ??ucInitLongTrame
        MOV     A,R1
//  122                                           // < longueur tampon. 
//  123  cpDebutTrame = &cTabCaractereRecu[0];    // Pointeur pour debut tampon.
        MOV     DPTR,#??cTabCaractereRecu
        MOVX    A,@DPTR
        MOV     R0,A
        INC     DPTR
        MOVX    A,@DPTR
        MOV     R1,A
        MOV     DPTR,#??cpDebutTrame
        MOV     A,R0
        MOVX    @DPTR,A
        INC     DPTR
        MOV     A,R1
        MOVX    @DPTR,A
//  124  cpFinTrame   = &cTabCaractereRecu[(ucLongBuf-1)];// Pointeur pour fin tampon.
        MOV     A,?V0 + 2
        MOV     R0,?V0 + 2
        MOV     R1,#0x0
        MOV     DPTR,#??cTabCaractereRecu
        MOVX    A,@DPTR
        ADD     A,R0
        MOV     R0,A
        INC     DPTR
        MOVX    A,@DPTR
        ADDC    A,R1
        MOV     R1,A
        MOV     A,R0
        ADD     A,#-0x1
        MOV     R0,A
        MOV     A,R1
        ADDC    A,#-0x1
        MOV     R1,A
        MOV     DPTR,#??cpFinTrame
        MOV     A,R0
        MOVX    @DPTR,A
        INC     DPTR
        MOV     A,R1
        MOVX    @DPTR,A
//  125  cptrEcriture = &cTabCaractereRecu[0];    // Pointeur ecriture et lecture au 
        MOV     DPTR,#??cTabCaractereRecu
        MOVX    A,@DPTR
        MOV     R0,A
        INC     DPTR
        MOVX    A,@DPTR
        MOV     R1,A
        MOV     DPTR,#??cptrEcriture
        MOV     A,R0
        MOVX    @DPTR,A
        INC     DPTR
        MOV     A,R1
        MOVX    @DPTR,A
//  126  cptrLecture  = &cTabCaractereRecu[0];    // debut du tampon.
        MOV     DPTR,#??cTabCaractereRecu
        MOVX    A,@DPTR
        MOV     R0,A
        INC     DPTR
        MOVX    A,@DPTR
        MOV     R1,A
        MOV     DPTR,#??cptrLecture
        MOV     A,R0
        MOVX    @DPTR,A
        INC     DPTR
        MOV     A,R1
        MOVX    @DPTR,A
//  127  vInitBaudRate(uiBaud);                   // Initialise la vitesse de 
        ; Setup parameters for call to function CLCommunic::vInitBaudRate(UI)
        MOV     A,R6
        MOV     R4,A
        MOV     A,R7
        MOV     R5,A
        MOV     R2,?V0 + 0
        MOV     R3,?V0 + 1
        LCALL   ??vInitBaudRate
//  128                                           // communication.
//  129 }
        MOV     R2,?V0 + 0
        MOV     R3,?V0 + 1
        MOV     R7,#0x6
        LJMP    ?FUNC_LEAVE_XDATA
        CFI EndBlock cfiBlock4
//  130 
//  131 //*****************************************************************************
//  132 // Nom de la fct:   ~CLCommunic
//  133 // Description:     Desctructeur qui libert la memoire pris par le tampon. 
//  134 //
//  135 // INCLUDE:        #include "_TypeCible.h", "CLCommunic.h" 
//  136 // Prototype:      ~CLCommunic(void); 
//  137 //
//  138 //
//  139 // Parametre d'entree: aucun
//  140 //
//  141 // Parametre de sortie: Aucun
//  142 //
//  143 // Procedure appelees: aucun
//  144 //                     
//  145 // Exemple d'appel:  
//  146 //
//  147 // Fait par: Philippe Dubois
//  148 // Date:            10 avril 2014       
//  149 // Revision :       A      
//  150 // Modification : 
//  151 //*****************************************************************************

        RSEG NEAR_CODE:CODE:NOROOT(0)
//  152 CLCommunic :: ~CLCommunic(void)
`?~CLCommunic`:
        CFI Block cfiBlock5 Using cfiCommon0
        CFI Function `?~CLCommunic`
        CODE
//  153 {
        FUNCALL `?~CLCommunic`, `??operator delete`
        LOCFRAME ISTACK, 2, STACK
        LOCFRAME PSTACK, 0, STACK
        LOCFRAME XSTACK, 0, STACK
        LOCFRAME IOVERLAY, 0, STATIC
        LOCFRAME DOVERLAY, 0, STATIC
        ARGFRAME ISTACK, 2, STACK
        ARGFRAME PSTACK, 0, STACK
        ARGFRAME XSTACK, 0, STACK
        ARGFRAME IOVERLAY, 0, STATIC
        ARGFRAME DOVERLAY, 0, STATIC
        PUSH    DPL
        CFI DPL0 Frame(CFA_SP, 3)
        CFI CFA_SP SP+-3
        PUSH    DPH
        CFI DPH0 Frame(CFA_SP, 4)
        CFI CFA_SP SP+-4
        ; Saved register size: 2
        ; Auto size: 0
//  154 if(cTabCaractereRecu)            // Verification pour s'assurer que le 
        MOV     DPTR,#??cTabCaractereRecu
        MOVX    A,@DPTR
        MOV     R0,A
        INC     DPTR
        MOVX    A,@DPTR
        MOV     R1,A
        MOV     A,R0
        ORL     A,R1
        JZ      `?~CLCommunic_1`
//  155   {                                // pointeur n'a pas deja ete libere
//  156    delete cTabCaractereRecu;       // Libert la memoire prise par le tampon.
        ; Setup parameters for call to function operator delete(void *)
        MOV     DPTR,#??cTabCaractereRecu
        MOVX    A,@DPTR
        MOV     R2,A
        INC     DPTR
        MOVX    A,@DPTR
        MOV     R3,A
        LCALL   `??operator delete`
//  157    cTabCaractereRecu = NULL;       // Pour mettre a 0 le pointeur.
        MOV     DPTR,#??cTabCaractereRecu
        MOV     A,#0x0
        MOVX    @DPTR,A
        INC     DPTR
        MOV     A,#0x0
        MOVX    @DPTR,A
//  158   }
//  159 }
`?~CLCommunic_1`:
        POP     DPH
        CFI DPH0 SameValue
        CFI CFA_SP SP+-3
        POP     DPL
        CFI DPL0 SameValue
        CFI CFA_SP SP+-2
        RET
        CFI EndBlock cfiBlock5
//  160 
//  161 //*****************************************************************************
//  162 // Nom de la fct:   ucInitLongTrame
//  163 // Description:     Verifie si la trame entree est inferieure au tampon
//  164 //                  sinon la longueur de la trame = a celle du buffer.
//  165 //
//  166 // INCLUDE:        #include "_TypeCible.h", "CLCommunic.h" 
//  167 // Prototype:      UC ucInitLongTrame(UC ucLong);
//  168 //
//  169 //
//  170 // Parametre d'entree: ucLong longueur voulue
//  171 //
//  172 // Parametre de sortie: ucValide pour valide ou non la taille
//  173 //
//  174 // Procedure appelees: aucun
//  175 //                     
//  176 // Exemple d'appel:  ucInitLongTrame(ucLongTrame);
//  177 //
//  178 // Fait par: Philippe Dubois
//  179 // Date:            10 avril 2014       
//  180 // Revision :       A      
//  181 // Modification : 
//  182 //*****************************************************************************
//  183 

        RSEG NEAR_CODE:CODE:NOROOT(0)
//  184 UC CLCommunic :: ucInitLongTrame(UC ucLong)
??ucInitLongTrame:
        CFI Block cfiBlock6 Using cfiCommon0
        CFI Function ??ucInitLongTrame
        CODE
//  185 {
        PUSH    DPL
        CFI DPL0 Frame(CFA_SP, 3)
        CFI CFA_SP SP+-3
        PUSH    DPH
        CFI DPH0 Frame(CFA_SP, 4)
        CFI CFA_SP SP+-4
        ; Saved register size: 2
        ; Auto size: 0
        MOV     A,R1
        MOV     R0,A
//  186 UC ucValide;                           // Varaible pour valider ou non.
//  187 
//  188 if(ucLong <= ucLongueurTampon)         // Si longueur trame voulue <= a la longueur
        MOV     DPTR,#??ucLongueurTampon
        MOVX    A,@DPTR
        CLR     C
        SUBB    A,R0
        JC      ??ucInitLongTrame_1
//  189   {                                    // du tampon.
//  190    ucLongueurTrame = ucLong;           // longueur trame = longueur trame voulue.
        MOV     A,R0
        MOV     DPTR,#??ucLongueurTrame
        MOVX    @DPTR,A
//  191    ucValide = VRAI;                    // ucValide = Vrai.
        MOV     R1,#0x1
//  192   }
//  193 
//  194 if(ucLong > ucLongueurTampon)          // Si longueur trame voulue > a la longueur
??ucInitLongTrame_1:
        MOV     DPTR,#??ucLongueurTampon
        MOVX    A,@DPTR
        CLR     C
        SUBB    A,R0
        JNC     ??ucInitLongTrame_2
//  195   {                                    // du tampon.
//  196    ucLongueurTrame = ucLongueurTampon; // longueur trame = longueur tampon.
        MOV     DPTR,#??ucLongueurTampon
        MOVX    A,@DPTR
        MOV     DPTR,#??ucLongueurTrame
        MOVX    @DPTR,A
//  197    ucValide = FAUX;                    // ucValide = Faux.
        MOV     R1,#0x0
//  198   } 
//  199 
//  200 return(ucValide);                      // Retourne etat de ucValide.
??ucInitLongTrame_2:
        POP     DPH
        CFI DPH0 SameValue
        CFI CFA_SP SP+-3
        POP     DPL
        CFI DPL0 SameValue
        CFI CFA_SP SP+-2
        RET
        CFI EndBlock cfiBlock6
//  201 }
//  202 
//  203 
//  204 //*****************************************************************************
//  205 // Nom de la fct:   ucValideTrame
//  206 // Description:     Valide la trame recue, additionne tous les caracteres 
//  207 //                  recues et commpare avec le checksum.
//  208 //
//  209 // INCLUDE:        #include "_TypeCible.h", "CLCommunic.h" 
//  210 // Prototype:      UC ucValideTrame(void);
//  211 //
//  212 //
//  213 // Parametre d'entre: aucun
//  214 //
//  215 // Parametre de sortie: ucValide pour valide ou non la trame.
//  216 //
//  217 // Procedure appelees: aucun
//  218 //                     
//  219 // Exemple d'appel: if(ucValideTrame() == VRAI)
//  220 //
//  221 // Fait par: Philippe Dubois
//  222 // Date:            10 avril 2014       
//  223 // Revision :       A      
//  224 // Modification : 
//  225 //*****************************************************************************

        RSEG NEAR_CODE:CODE:NOROOT(0)
//  226 UC CLCommunic :: ucValideTrame(void)
??ucValideTrame:
        CFI Block cfiBlock7 Using cfiCommon0
        CFI Function ??ucValideTrame
        CODE
//  227 {
        PUSH    DPL
        CFI DPL0 Frame(CFA_SP, 3)
        CFI CFA_SP SP+-3
        PUSH    DPH
        CFI DPH0 Frame(CFA_SP, 4)
        CFI CFA_SP SP+-4
        ; Saved register size: 2
        ; Auto size: 0
//  228 UC ucValide;               // Variable pour etat valide ou non.      
//  229 UC ucSomme;                // variable pour la somme des caracteres recus.
//  230 ucSomme = 0;               // Initialise la somme a 0.
        MOV     R2,#0x0
//  231 UC ucBoucle;               // Varialbe pour boucle.
//  232  
//  233 char *cPtrVerification;    // pointeur sur la tramme recu
//  234 cPtrVerification = cptrLecture; // Intialise l'adresse du debut de la trame.
        MOV     DPTR,#??cptrLecture
        MOVX    A,@DPTR
        MOV     R0,A
        INC     DPTR
        MOVX    A,@DPTR
        MOV     R1,A
//  235   
//  236 ucBoucle = (ucLongueurTrame - 1);         // Pour additionner toutes les valeurs
        MOV     DPTR,#??ucLongueurTrame
        MOVX    A,@DPTR
        ADD     A,#-0x1
        MOV     R3,A
        SJMP    ??ucValideTrame_1
//  237                                           // sauf le dernier
//  238 for(;ucBoucle > 0; ucBoucle--)
//  239   {
//  240    ucSomme = *cPtrVerification + ucSomme; // Additionne le caractere avec somme.
??ucValideTrame_2:
        MOV     DPL,R0
        MOV     DPH,R1
        MOVX    A,@DPTR
        ADD     A,R2
        MOV     R2,A
//  241    cPtrVerification ++;                   // Valeur suivante.        
        MOV     DPL,R0
        MOV     DPH,R1
        INC     DPTR
        MOV     R0,DPL
        MOV     R1,DPH
//  242   }
        DEC     R3
??ucValideTrame_1:
        MOV     A,R3
        CLR     C
        SUBB    A,#0x1
        JNC     ??ucValideTrame_2
//  243                                           // Compare la somme avec le checksum recu.
//  244 if(ucSomme == *cPtrVerification)          // Si egal?
        MOV     DPL,R0
        MOV     DPH,R1
        MOVX    A,@DPTR
        XRL     A,R2
        JNZ     ??ucValideTrame_3
//  245   {
//  246    ucValide = VRAI;                       // Trame correcte.
        MOV     R1,#0x1
        SJMP    ??ucValideTrame_4
//  247   }
//  248 else                                      // Sinon 
//  249   {
//  250    ucValide = FAUX;                       // Trame incorrecte.
??ucValideTrame_3:
        MOV     R1,#0x0
//  251   }
//  252 
//  253 return(ucValide);                         // Retourne valide ou non.
??ucValideTrame_4:
        POP     DPH
        CFI DPH0 SameValue
        CFI CFA_SP SP+-3
        POP     DPL
        CFI DPL0 SameValue
        CFI CFA_SP SP+-2
        RET
        CFI EndBlock cfiBlock7
//  254 } 
//  255 
//  256 //*****************************************************************************
//  257 // Nom de la fct:   vTransCaratere                  Fait par: Philippe Dubois
//  258 // Date:            2 octobre 2013             
//  259 // Revision :       A      
//  260 // Modification : 
//  261 // INCLUDE:         #include "_TypeCible.h", "CLCommunic.h" 
//  262 // Prototype:       void vTransCaratere(UC ucCar);
//  263 //
//  264 // Description:     Fonction qui permet de transmettre un caractere par le port 
//  265 //                  serie, et on attend que le caractere soit completement 
//  266 //                  envoye par "polling" avec le flag TI_0.
//  267 //
//  268 // Parametre d'entree: ucCar: caractere qu'on veut envoyer. 
//  269 //                     
//  270 //
//  271 // Parametre de sortie: aucune
//  272 //
//  273 // Procedure appelees: aucune.
//  274 //                     
//  275 // Exemple d'appel: clCommunic.vTransCaratere('A') 
//  276 //*****************************************************************************

        RSEG NEAR_CODE:CODE:NOROOT(0)
//  277 void CLCommunic :: vTransCaratere(UC ucCar)
??vTransCaratere:
        CFI Block cfiBlock8 Using cfiCommon0
        CFI Function ??vTransCaratere
        CODE
//  278 {
        ; Saved register size: 0
        ; Auto size: 0
//  279 SBUF0 = ucCar;             // Envoye le caractere dans SBUF0 pour le transmetre sur TX                     
        MOV     0x99,R1
//  280 while(TI_0 ==0);           // Si le flag TI_0 se met a 1 (termine)
??vTransCaratere_1:
        MOV     C,0x98.1
        JNC     ??vTransCaratere_1
//  281 TI_0  = 0;                 // Remet le flag a 0.
        CLR     0x98.1
//  282 }
        RET
        CFI EndBlock cfiBlock8
        REQUIRE SBUF
        REQUIRE _A_SCON
//  283 
//  284 
//  285 
//  286 //*****************************************************************************
//  287 // Nom de la fct:   vAffChaine
//  288 // Description:     Transmet une chaine de caracteres sur le port serie.
//  289 //
//  290 // INCLUDE:        #include "_TypeCible.h", "CLCommunic.h" 
//  291 // Prototype:      void vAffChaine(char const *ucpMessage)
//  292 //
//  293 //
//  294 // Parametre d'entre: *ucpMessage pour chaine de caractere.
//  295 //
//  296 // Parametre de sortie: aucun
//  297 //
//  298 // Procedure appelees: vTransCaratere()
//  299 //                     
//  300 // Exemple d'appel: clCommunic.vAffChaine("TEST");
//  301 //
//  302 // Fait par: Philippe Dubois
//  303 // Date:            10 avril 2014       
//  304 // Revision :       A      
//  305 // Modification : 
//  306 //*****************************************************************************

        RSEG NEAR_CODE:CODE:NOROOT(0)
//  307 void CLCommunic :: vAffChaine(char const *ucpMessage)
??vAffChaine:
        CFI Block cfiBlock9 Using cfiCommon0
        CFI Function ??vAffChaine
        CODE
//  308 {
        FUNCALL ??vAffChaine, ??vTransCaratere
        LOCFRAME ISTACK, 0, STACK
        LOCFRAME PSTACK, 0, STACK
        LOCFRAME XSTACK, 8, STACK
        LOCFRAME IOVERLAY, 0, STATIC
        LOCFRAME DOVERLAY, 0, STATIC
        ARGFRAME ISTACK, 0, STACK
        ARGFRAME PSTACK, 0, STACK
        ARGFRAME XSTACK, 8, STACK
        ARGFRAME IOVERLAY, 0, STATIC
        ARGFRAME DOVERLAY, 0, STATIC
        MOV     A,#-0x8
        LCALL   ?FUNC_ENTER_XDATA
        CFI DPH0 load(1, XDATA, add(CFA_XSP16, literal(-1)))
        CFI DPL0 load(1, XDATA, add(CFA_XSP16, literal(-2)))
        CFI ?RET_HIGH load(1, XDATA, add(CFA_XSP16, literal(-3)))
        CFI ?RET_LOW load(1, XDATA, add(CFA_XSP16, literal(-4)))
        CFI R7 load(1, XDATA, add(CFA_XSP16, literal(-5)))
        CFI V0 load(1, XDATA, add(CFA_XSP16, literal(-6)))
        CFI VB load(1, XDATA, add(CFA_XSP16, literal(-7)))
        CFI R6 load(1, XDATA, add(CFA_XSP16, literal(-8)))
        CFI CFA_SP SP+0
        CFI CFA_XSP16 add(XSP16, 8)
        ; Saved register size: 8
        ; Auto size: 0
        MOV     A,R2
        MOV     R6,A
        MOV     A,R3
        MOV     R7,A
        MOV     DPL,R4
        MOV     DPH,R5
        SJMP    ??vAffChaine_1
//  309 while(*ucpMessage != 0x00)          // Tant qu'on a pas atteint la fin de 
//  310   {                                 // la chaine.
//  311    vTransCaratere(*ucpMessage);     // Transmet le caractere.
??vAffChaine_2:
        ; Setup parameters for call to function CLCommunic::vTransCaratere(UC)
        MOVX    A,@DPTR
        MOV     R1,A
        MOV     A,R6
        MOV     R2,A
        MOV     A,R7
        MOV     R3,A
        LCALL   ??vTransCaratere
//  312    ucpMessage++;                    // Passe au caractere suivant.
        INC     DPTR
//  313   }
??vAffChaine_1:
        MOVX    A,@DPTR
        JNZ     ??vAffChaine_2
//  314 }
        MOV     R7,#0x1
        LJMP    ?FUNC_LEAVE_XDATA
        CFI EndBlock cfiBlock9
//  315 
//  316 //*****************************************************************************
//  317 // Nom de la fct:   ucLireNbCaractRecu                Fait par: Philippe Dubois
//  318 // Date:            2 octobre 2013             
//  319 // Revision :       A      
//  320 // Modification : 
//  321 // INCLUDE:         #include "_TypeCible.h", "CLCommunic.h" 
//  322 // Prototype:       UC ucLireNbCaractRecu(void);
//  323 //
//  324 // Description:     Fonction qui retourne le nombre de caractere recu. 
//  325 //                  
//  326 //
//  327 // Parametre d'entree: aucun 
//  328 //                     
//  329 //
//  330 // Parametre de sortie: ucNombreCaractere: nombre de caractere recu.
//  331 //
//  332 // Procedure appelees: aucune.
//  333 //                     
//  334 // Exemple d'appel: if(ucLireNbCaractRecu() < (ucLongueurTrame -1))
//  335 //*****************************************************************************

        RSEG NEAR_CODE:CODE:NOROOT(0)
//  336 UC CLCommunic :: ucLireNbCaractRecu(void)
??ucLireNbCaractRecu:
        CFI Block cfiBlock10 Using cfiCommon0
        CFI Function ??ucLireNbCaractRecu
        CODE
//  337 {
        PUSH    DPL
        CFI DPL0 Frame(CFA_SP, 3)
        CFI CFA_SP SP+-3
        PUSH    DPH
        CFI DPH0 Frame(CFA_SP, 4)
        CFI CFA_SP SP+-4
        ; Saved register size: 2
        ; Auto size: 0
//  338 return(ucNbCaractRecu);          // Retourne le nombre de caractere recu.
        MOV     DPTR,#??ucNbCaractRecu
        MOVX    A,@DPTR
        MOV     R1,A
        POP     DPH
        CFI DPH0 SameValue
        CFI CFA_SP SP+-3
        POP     DPL
        CFI DPL0 SameValue
        CFI CFA_SP SP+-2
        RET
        CFI EndBlock cfiBlock10
//  339 }
//  340 //*****************************************************************************
//  341 // Nom de la fct:   ucLireEtatTrame                  Fait par: Philippe Dubois
//  342 // Date:            2 octobre 2013             
//  343 // Revision :       A      
//  344 // Modification : 
//  345 // INCLUDE:        #include "_TypeCible.h", "CLCommunic.h" 
//  346 // Prototype:       UC ucLireEtatTrame(void);
//  347 //
//  348 // Description:     Fonction qui permet de savoir si une trame est complete. 
//  349 //                  
//  350 //
//  351 // Parametre d'entree: aucun 
//  352 //                     
//  353 //
//  354 // Parametre de sortie: ucEtatTrameRecu: a 1 pour complete et 0 si imcomplete.
//  355 //
//  356 // Procedure appelees: aucune.
//  357 //                     
//  358 // Exemple d'appel:if(ucLireEtatTrame()==TRAMECOMPLET) 
//  359 //*****************************************************************************

        RSEG NEAR_CODE:CODE:NOROOT(0)
//  360 UC CLCommunic :: ucLireEtatTrame(void)
??ucLireEtatTrame:
        CFI Block cfiBlock11 Using cfiCommon0
        CFI Function ??ucLireEtatTrame
        CODE
//  361 {
        PUSH    DPL
        CFI DPL0 Frame(CFA_SP, 3)
        CFI CFA_SP SP+-3
        PUSH    DPH
        CFI DPH0 Frame(CFA_SP, 4)
        CFI CFA_SP SP+-4
        ; Saved register size: 2
        ; Auto size: 0
//  362 return(ucEtatTrame);            // Retourne l'etat de la trame.
        MOV     DPTR,#??ucEtatTrame
        MOVX    A,@DPTR
        MOV     R1,A
        POP     DPH
        CFI DPH0 SameValue
        CFI CFA_SP SP+-3
        POP     DPL
        CFI DPL0 SameValue
        CFI CFA_SP SP+-2
        RET
        CFI EndBlock cfiBlock11
//  363 }
//  364 //*****************************************************************************
//  365 // Nom de la fct:   *ucpLireTrame                   Fait par: Philippe Dubois
//  366 // Date:            2 octobre 2013             
//  367 // Revision :       A      
//  368 // Modification : 
//  369 // INCLUDE:         #include "_TypeCible.h", "CLCommunic.h" 
//  370 // Prototype:       UI *ucpLireTrame(void);
//  371 //
//  372 // Description:     Fonction qui permet de transmettre l'adresse du tableau 
//  373 //                  contenant la trame de caractere, et reinitialiser l'etat  
//  374 //                  de la  trame.
//  375 //
//  376 // Parametre d'entree: aucun 
//  377 //                     
//  378 //
//  379 // Parametre de sortie: uiTab: adresse du tableau.
//  380 //
//  381 // Procedure appelees: ucValideTrame()
//  382 //                     
//  383 // Exemple d'appel:vTransCaratere('A') 
//  384 //*****************************************************************************

        RSEG NEAR_CODE:CODE:NOROOT(0)
//  385 char *CLCommunic :: ucpLireTrame(void)
??ucpLireTrame:
        CFI Block cfiBlock12 Using cfiCommon0
        CFI Function ??ucpLireTrame
        CODE
//  386 {
        FUNCALL ??ucpLireTrame, ??ucValideTrame
        LOCFRAME ISTACK, 2, STACK
        LOCFRAME PSTACK, 0, STACK
        LOCFRAME XSTACK, 0, STACK
        LOCFRAME IOVERLAY, 0, STATIC
        LOCFRAME DOVERLAY, 0, STATIC
        ARGFRAME ISTACK, 2, STACK
        ARGFRAME PSTACK, 0, STACK
        ARGFRAME XSTACK, 0, STACK
        ARGFRAME IOVERLAY, 0, STATIC
        ARGFRAME DOVERLAY, 0, STATIC
        PUSH    DPL
        CFI DPL0 Frame(CFA_SP, 3)
        CFI CFA_SP SP+-3
        PUSH    DPH
        CFI DPH0 Frame(CFA_SP, 4)
        CFI CFA_SP SP+-4
        ; Saved register size: 2
        ; Auto size: 0
//  387 char *ucptrLectAEnvoyer;           // Pointeur sur la trame recue.
//  388 ucEtatTrame = INCOMPLET;           // Reinitialise l'etat de la trame.
        MOV     DPTR,#??ucEtatTrame
        MOV     A,#0x0
        MOVX    @DPTR,A
//  389 
//  390 if(ucValideTrame() == VRAI)        // Verifie si la trame est valide.
        ; Setup parameters for call to function CLCommunic::ucValideTrame()
        LCALL   ??ucValideTrame
        MOV     A,R1
        XRL     A,#0x1
        JNZ     ??ucpLireTrame_1
//  391   {                                // Si elle l'est 
//  392    ucptrLectAEnvoyer = cptrLecture;// transmet l'adresse du debut de la trame.
        MOV     DPTR,#??cptrLecture
        MOVX    A,@DPTR
        MOV     R2,A
        INC     DPTR
        MOVX    A,@DPTR
        MOV     R3,A
        SJMP    ??ucpLireTrame_2
//  393   }
//  394 else                               // Sinon
//  395   {
//  396    ucptrLectAEnvoyer = NULL;       // Ne transmet pas l'adresse du debut de 
??ucpLireTrame_1:
        MOV     R2,#0x0
        MOV     R3,#0x0
//  397   }                                // la trame.
//  398 return(ucptrLectAEnvoyer);         // Retourne l'adresse du tableau ou NULL. 
??ucpLireTrame_2:
        POP     DPH
        CFI DPH0 SameValue
        CFI CFA_SP SP+-3
        POP     DPL
        CFI DPL0 SameValue
        CFI CFA_SP SP+-2
        RET
        CFI EndBlock cfiBlock12
//  399 }
//  400 //*****************************************************************************
//  401 // Nom de la fct:   vInitBaudRate                  Fait par: Philippe Dubois
//  402 // Date:            2 octobre 2013         version base
//  403 //                  10 avril 2014          version avec uPSD.
//  404 // Revision :       B      
//  405 // Modification : 
//  406 // INCLUDE:         #include "_TypeCible.h", "CLCommunic.h" 
//  407 // Prototype:       void vInitBaudRate(UI uiBaud);
//  408 //
//  409 // Description:     Fonction qui permet d' initialiser le port srie au 
//  410 //                  baudrate desire, le timer 1(8 bit auto reload) et  
//  411 //                  les interuptions necessaire pour communiquer avec 
//  412 //                  le port serie.
//  413 //                  Ajout de la compilation conditionnelle pour choix
//  414 //                  de la valeur a mettre dans TH1 selon la cible.
//  415 //
//  416 // Parametre d'entree: UI uiBaud: pour determine la vitesse du baudrate. 
//  417 //                     
//  418 //
//  419 // Parametre de sortie: aucune
//  420 //
//  421 // Procedure appelees: aucune.
//  422 //                     
//  423 // Exemple d'appel: vInitBaudRate(57600);
//  424 //*****************************************************************************

        RSEG NEAR_CODE:CODE:NOROOT(0)
//  425 void CLCommunic:: vInitBaudRate(UI uiBaud)
??vInitBaudRate:
        CFI Block cfiBlock13 Using cfiCommon0
        CFI Function ??vInitBaudRate
        CODE
//  426 {
        MOV     A,#-0x9
        LCALL   ?FUNC_ENTER_XDATA
        CFI DPH0 load(1, XDATA, add(CFA_XSP16, literal(-1)))
        CFI DPL0 load(1, XDATA, add(CFA_XSP16, literal(-2)))
        CFI ?RET_HIGH load(1, XDATA, add(CFA_XSP16, literal(-3)))
        CFI ?RET_LOW load(1, XDATA, add(CFA_XSP16, literal(-4)))
        CFI R7 load(1, XDATA, add(CFA_XSP16, literal(-5)))
        CFI V1 load(1, XDATA, add(CFA_XSP16, literal(-6)))
        CFI V0 load(1, XDATA, add(CFA_XSP16, literal(-7)))
        CFI VB load(1, XDATA, add(CFA_XSP16, literal(-8)))
        CFI R6 load(1, XDATA, add(CFA_XSP16, literal(-9)))
        CFI CFA_SP SP+0
        CFI CFA_XSP16 add(XSP16, 9)
        ; Saved register size: 9
        ; Auto size: 0
//  427 SCON0 = 0x50;         // SM0_0=0 
        MOV     0x98,#0x50
//  428                       // SM1_0=1
//  429                       // SM2_0=0 pour longeur 10 bits et asychrone.
//  430                       // REN_0=1 pour recevoir des caracteres.
//  431 TMOD = TMOD | 0x20;   // M1=1
        ORL     0x89,#0x20
//  432                       // M0=0 pour timer 8bit avec autoreload.
//  433 PCON = PCON | 0x80;   // Pour doubler le baudrate (SMOD_0=1;).
        ORL     0x87,#0x80
//  434 
//  435 #ifdef DALLAS89C450   // Si la cible est le Dallas
//  436 
//  437 switch(uiBaud)         // switch case pour determiner la valeur en 
//  438   {                    // hexa qui faut mettre a TH1 pour avoir la 
//  439                    // bonne vitesse du timer pour generer
//  440    case 57600:         // le baudrate.
//  441       TH1= 0xFF;
//  442    break;
//  443    case 38400:
//  444       TH1= 0xFE;
//  445    break;
//  446    case 19200:
//  447       TH1= 0xFD;
//  448    break;
//  449    case 9600:
//  450       TH1= 0xFA;
//  451    break;
//  452    case 4800:
//  453       TH1= 0xF4;
//  454    break;
//  455    case 2400:
//  456       TH1= 0xE8;
//  457    break;
//  458    default:
//  459       TH1= 0xFA;        // Si aucune valeur ne correspond vitesse = 9600 .
//  460    break; 
//  461   }
//  462 #endif
//  463  
//  464 #ifdef UPSD3254A        // Si la cible est le uPSD
//  465 
//  466 switch(uiBaud)         // switch case pour determiner la valeur en 
        MOV     ?V0 + 0,R4
        MOV     ?V0 + 1,R5
        MOV     R0,#?V0 + 0
        LCALL   ?US_SWITCH_SPARSE
`?<Jumptable for vInitBaudRate>_0`:
        DATA
        DATA16
        DATA
        DATA16
        DATA
        DATA16
        DW        0
        DATA
        DATA16
        DATA
        DATA16
        DATA
        DATA16
        DW        3
        DATA
        DATA16
        DATA
        DATA16
        DATA
        DATA16
        DW        2400
        DATA
        DATA16
        DATA
        DATA16
        DATA
        DATA16
        DW        ??vInitBaudRate_1
        DATA
        DATA16
        DATA
        DATA16
        DATA
        DATA16
        DW        4800
        DATA
        DATA16
        DATA
        DATA16
        DATA
        DATA16
        DW        ??vInitBaudRate_2
        DATA
        DATA16
        DATA
        DATA16
        DATA
        DATA16
        DW        9600
        DATA
        DATA16
        DATA
        DATA16
        DATA
        DATA16
        DW        ??vInitBaudRate_3
        DATA
        DATA16
        DATA
        DATA16
        DW        ??vInitBaudRate_4
        CODE
//  467   {                    // hexa qui faut mettre a TH1 pour avoir la 
//  468                   // bonne vitesse du timer pour generer
//  469     /*case 57600:      // le baudrate.
//  470     TH1= 0xFE ;
//  471     break;
//  472     case 38400:        // uPSD ne peut aller a ces vitesses
//  473     TH1= 0xFD;
//  474     break;
//  475     case 19200:
//  476     TH1= 0xF9;
//  477     break;*/
//  478     case 9600:
//  479        TH1= 0xF3;
??vInitBaudRate_3:
        MOV     0x8d,#-0xd
//  480     break;
        SJMP    ??vInitBaudRate_5
//  481     case 4800:
//  482        TH1= 0xE6;
??vInitBaudRate_2:
        MOV     0x8d,#-0x1a
//  483     break;
        SJMP    ??vInitBaudRate_5
//  484     case 2400:
//  485        TH1= 0xCC;
??vInitBaudRate_1:
        MOV     0x8d,#-0x34
//  486     break;
        SJMP    ??vInitBaudRate_5
//  487     default:
//  488        TH1= 0xF3;         // Si aucune valeur ne correspond vitesse = 9600 .
??vInitBaudRate_4:
        MOV     0x8d,#-0xd
//  489     break; 
//  490   }
//  491 #endif 
//  492  
//  493 TR1  = 1;      // Active le timer 1.
??vInitBaudRate_5:
        SETB    0x88.6
//  494 ET1  = 0;      // Desactive les interruptions du timer 1. 
        CLR     0xa8.3
//  495 EA   = 1;      // Active les interruptions.
        SETB    0xa8.7
//  496 ES   = 1;      // Active les interruptions du port serie.
        SETB    0xa8.4
//  497 TI_0 = 0;      // Met a 0 le drapeau de la transmision serie.
        CLR     0x98.1
//  498 }
        MOV     R7,#0x2
        LJMP    ?FUNC_LEAVE_XDATA
        CFI EndBlock cfiBlock13
        REQUIRE _A_SCON
        REQUIRE _A_TMOD
        REQUIRE _A_PCON
        REQUIRE TH1
        REQUIRE _A_TCON
        REQUIRE _A_IE
//  499 
//  500 //*****************************************************************************
//  501 // Nom de la fct:   vInteruptSerial                  Fait par: Philippe Dubois
//  502 // Date:            2 octobre 2013 
//  503 //                  
//  504 // Revision :       B      
//  505 // Modification :   10 avril 2014     conversion pour IAR
//  506 //
//  507 // INCLUDE:         #include "_TypeCible.h", "CLCommunic.h" 
//  508 // Prototype:       __interrupt  void CLCommunic:: vInteruptSerial(void);
//  509 //
//  510 // Description:     Fonction qui permet de recevoir des caracteres par le port 
//  511 //                  serie, si l'interruption vient de la reception on place
//  512 //                  les caracteres lus dans un tableau.
//  513 //
//  514 // Parametre d'entree: aucun.
//  515 //                     
//  516 //
//  517 // Parametre de sortie: valeur dans cptrLecture pour lire les caractere recus.
//  518 //
//  519 // Procedure appelees: ucLireNbCaractRecu(),
//  520 //                     
//  521 // Exemple d'appel: aucun 
//  522 //*****************************************************************************
//  523 #pragma vector=0x23  // Interrupt 4 pour interruption serie au vecteur 23                                  

        RSEG NEAR_CODE:CODE:NOROOT(0)
//  524  __interrupt  void CLCommunic:: vInteruptSerial(void) 
??vInteruptSerial:
        CFI Block cfiBlock14 Using cfiCommon1
        CFI Function ??vInteruptSerial
        CODE
//  525 {
        FUNCALL ??vInteruptSerial, ??ucLireNbCaractRecu
        LOCFRAME ISTACK, 15, STACK
        LOCFRAME PSTACK, 0, STACK
        LOCFRAME XSTACK, 0, STACK
        LOCFRAME IOVERLAY, 0, STATIC
        LOCFRAME DOVERLAY, 0, STATIC
        ARGFRAME ISTACK, 15, STACK
        ARGFRAME PSTACK, 0, STACK
        ARGFRAME XSTACK, 0, STACK
        ARGFRAME IOVERLAY, 0, STATIC
        ARGFRAME DOVERLAY, 0, STATIC
        PUSH    A
        CFI A Frame(CFA_SP, 3)
        CFI CFA_SP SP+-3
        MOV     A,#-0xe
        LCALL   ?INTERRUPT_ENTER_XSP
        CFI B load(1, XDATA, add(CFA_XSP16, literal(-1)))
        CFI VB load(1, XDATA, add(CFA_XSP16, literal(-2)))
        CFI PSW load(1, XDATA, add(CFA_XSP16, literal(-3)))
        CFI DPL0 load(1, XDATA, add(CFA_XSP16, literal(-4)))
        CFI DPH0 load(1, XDATA, add(CFA_XSP16, literal(-5)))
        CFI R7 load(1, XDATA, add(CFA_XSP16, literal(-6)))
        CFI R6 load(1, XDATA, add(CFA_XSP16, literal(-7)))
        CFI R5 load(1, XDATA, add(CFA_XSP16, literal(-8)))
        CFI R4 load(1, XDATA, add(CFA_XSP16, literal(-9)))
        CFI V0 load(1, XDATA, add(CFA_XSP16, literal(-10)))
        CFI R3 load(1, XDATA, add(CFA_XSP16, literal(-11)))
        CFI R2 load(1, XDATA, add(CFA_XSP16, literal(-12)))
        CFI R1 load(1, XDATA, add(CFA_XSP16, literal(-13)))
        CFI R0 load(1, XDATA, add(CFA_XSP16, literal(-14)))
        CFI CFA_XSP16 add(XSP16, 14)
        ; Saved register size: 15
        ; Auto size: 0
//  526 EA = 0;                               // Desactive les interruptions.
        CLR     0xa8.7
//  527 
//  528 if(RI_0==1)                           // Interruption cause par la reception?
        MOV     C,0x98.0
        JC      $+5
        LJMP    ??vInteruptSerial_1
//  529   {
//  530    if(cptrEcriture > cpFinTrame)      // Si on a atteind la fin du buffer
        MOV     DPTR,#??cpFinTrame
        PUSH    DPL
        CFI CFA_SP SP+-4
        PUSH    DPH
        CFI CFA_SP SP+-5
        MOV     DPTR,#??cptrEcriture
        MOVX    A,@DPTR
        MOV     R0,A
        INC     DPTR
        MOVX    A,@DPTR
        MOV     R1,A
        POP     DPH
        CFI CFA_SP SP+-4
        POP     DPL
        CFI CFA_SP SP+-3
        CLR     C
        MOVX    A,@DPTR
        SUBB    A,R0
        INC     DPTR
        MOVX    A,@DPTR
        SUBB    A,R1
        JNC     ??vInteruptSerial_2
//  531      {
//  532       cptrEcriture = cpDebutTrame;    // Retourne au debut du tampon.
        MOV     DPTR,#??cpDebutTrame
        MOVX    A,@DPTR
        MOV     R0,A
        INC     DPTR
        MOVX    A,@DPTR
        MOV     R1,A
        MOV     DPTR,#??cptrEcriture
        MOV     A,R0
        MOVX    @DPTR,A
        INC     DPTR
        MOV     A,R1
        MOVX    @DPTR,A
//  533      }      
//  534      
//  535   *cptrEcriture    = SBUF0;  // Lit dans SBUF0 le caractere recu et met dans le tableau.                               
??vInteruptSerial_2:
        MOV     A,0x99
        PUSH    A
        CFI CFA_SP SP+-4
        MOV     DPTR,#??cptrEcriture
        MOVX    A,@DPTR
        MOV     R0,A
        INC     DPTR
        MOVX    A,@DPTR
        MOV     DPH,A
        MOV     DPL,R0
        POP     A
        CFI CFA_SP SP+-3
        MOVX    @DPTR,A
//  536    ucCaractereRecu = SBUF0;
        MOV     A,0x99
        MOV     DPTR,#??ucCaractereRecu
        MOVX    @DPTR,A
//  537    ucEtatReception = ACTIF;
        MOV     DPTR,#??ucEtatReception
        MOV     A,#0x1
        MOVX    @DPTR,A
//  538    cptrEcriture++;           // Increment la position du pointeur d'ecriture.
        MOV     DPTR,#??cptrEcriture
        MOVX    A,@DPTR
        ADD     A,#0x1
        MOV     R0,A
        INC     DPTR
        MOVX    A,@DPTR
        ADDC    A,#0x0
        MOV     R1,A
        MOV     DPTR,#??cptrEcriture
        MOV     A,R0
        MOVX    @DPTR,A
        INC     DPTR
        MOV     A,R1
        MOVX    @DPTR,A
//  539     
//  540    if(ucLireNbCaractRecu() < (ucLongueurTrame - 1) )
        ; Setup parameters for call to function CLCommunic::ucLireNbCaractRecu()
        LCALL   ??ucLireNbCaractRecu
        MOV     A,R1
        MOV     R2,A
        MOV     R3,#0x0
        MOV     DPTR,#??ucLongueurTrame
        MOVX    A,@DPTR
        MOV     R0,A
        MOV     R1,#0x0
        ADD     A,#-0x1
        MOV     R0,A
        MOV     A,R1
        ADDC    A,#-0x1
        MOV     R1,A
        CLR     C
        MOV     A,R2
        SUBB    A,R0
        MOV     A,R3
        SUBB    A,R1
        MOV     C,0xD0 /* PSW */.2
        XRL     A,PSW
        RLC     A
        JNC     ??vInteruptSerial_3
//  541      {                       // Si le nombre de caractere recu est inferieur a 
//  542       ucNbCaractRecu++;      // trame - 1 incremente le nombre de caracteres 
        MOV     DPTR,#??ucNbCaractRecu
        MOVX    A,@DPTR
        ADD     A,#0x1
        MOVX    @DPTR,A
        SJMP    ??vInteruptSerial_4
//  543      }                       // recus.
//  544    else                      // Si la trame est complete?
//  545      {
//  546       ucNbCaractRecu=0;      // Remet a 0 le compte de caractere.
??vInteruptSerial_3:
        MOV     DPTR,#??ucNbCaractRecu
        MOV     A,#0x0
        MOVX    @DPTR,A
//  547       ucEtatTrame = COMPLET; // Indique qu'une trame est complete.
        MOV     DPTR,#??ucEtatTrame
        MOV     A,#0x1
        MOVX    @DPTR,A
//  548       cptrLecture = (cptrEcriture - (ucLongueurTrame)); 
        MOV     DPTR,#??ucLongueurTrame
        MOVX    A,@DPTR
        MOV     R0,A
        MOV     R1,#0x0
        CLR     C
        CLR     A
        SUBB    A,R0
        MOV     R0,A
        CLR     A
        SUBB    A,R1
        MOV     R1,A
        MOV     DPTR,#??cptrEcriture
        MOVX    A,@DPTR
        ADD     A,R0
        MOV     R0,A
        INC     DPTR
        MOVX    A,@DPTR
        ADDC    A,R1
        MOV     R1,A
        MOV     DPTR,#??cptrLecture
        MOV     A,R0
        MOVX    @DPTR,A
        INC     DPTR
        MOV     A,R1
        MOVX    @DPTR,A
//  549                              // Le pointeur de lecture = la position 
//  550                              // d'ecriture - la longuer de la trame.
//  551      }
//  552    RI_0 = 0;                 // Reinitialiser le flag de reception.
??vInteruptSerial_4:
        CLR     0x98.0
//  553  }                           // Fin du if(RI_0 = 1)
//  554 EA = 1;                      // Reactive les interruptions
??vInteruptSerial_1:
        SETB    0xa8.7
//  555 }                            // Fin de Interruption.
        MOV     R7,#0x1
        LJMP    ?INTERRUPT_LEAVE_XSP
        CFI EndBlock cfiBlock14
        REQUIRE _A_IE
        REQUIRE _A_SCON
        REQUIRE SBUF
//  556 
//  557 //*****************************************************************************
//  558 // Nom de la fct:   vTransChiffre
//  559 // Description:     Fonction qui permet transmettre  un nombre de 0 a 
//  560 //                  65000 sur le port serie.
//  561 // INCLUDE:       #include "_TypeCible.h", "CLCommunic.h" 
//  562 // Prototype:     void vTransChiffre(UI uiChiffreAAfficher);
//  563 //
//  564 //
//  565 // Parametre d'entree: uiChiffreAAfficher pour chiffre a afficher
//  566 //                     
//  567 // Parametre de sortie: aucun
//  568 //
//  569 // Procedure appelees: vTransCaratere();
//  570 //                     
//  571 //
//  572 // Exemple d'appel: vLcdAffChiffre(12345)
//  573 //
//  574 // Fait par: Philippe Dubois
//  575 // Date:            14 novembre 2013             
//  576 // Revision :       A      
//  577 // Modification : 
//  578 //*****************************************************************************

        RSEG NEAR_CODE:CODE:NOROOT(0)
//  579 void CLCommunic :: vTransChiffre(UI uiChiffreAAfficher)
??vTransChiffre:
        CFI Block cfiBlock15 Using cfiCommon0
        CFI Function ??vTransChiffre
        CODE
//  580 {
        FUNCALL ??vTransChiffre, ??vTransCaratere
        LOCFRAME ISTACK, 0, STACK
        LOCFRAME PSTACK, 0, STACK
        LOCFRAME XSTACK, 10, STACK
        LOCFRAME IOVERLAY, 0, STATIC
        LOCFRAME DOVERLAY, 0, STATIC
        ARGFRAME ISTACK, 0, STACK
        ARGFRAME PSTACK, 0, STACK
        ARGFRAME XSTACK, 10, STACK
        ARGFRAME IOVERLAY, 0, STATIC
        ARGFRAME DOVERLAY, 0, STATIC
        FUNCALL ??vTransChiffre, ??vTransCaratere
        LOCFRAME ISTACK, 0, STACK
        LOCFRAME PSTACK, 0, STACK
        LOCFRAME XSTACK, 10, STACK
        LOCFRAME IOVERLAY, 0, STATIC
        LOCFRAME DOVERLAY, 0, STATIC
        ARGFRAME ISTACK, 0, STACK
        ARGFRAME PSTACK, 0, STACK
        ARGFRAME XSTACK, 10, STACK
        ARGFRAME IOVERLAY, 0, STATIC
        ARGFRAME DOVERLAY, 0, STATIC
        FUNCALL ??vTransChiffre, ??vTransCaratere
        LOCFRAME ISTACK, 0, STACK
        LOCFRAME PSTACK, 0, STACK
        LOCFRAME XSTACK, 10, STACK
        LOCFRAME IOVERLAY, 0, STATIC
        LOCFRAME DOVERLAY, 0, STATIC
        ARGFRAME ISTACK, 0, STACK
        ARGFRAME PSTACK, 0, STACK
        ARGFRAME XSTACK, 10, STACK
        ARGFRAME IOVERLAY, 0, STATIC
        ARGFRAME DOVERLAY, 0, STATIC
        FUNCALL ??vTransChiffre, ??vTransCaratere
        LOCFRAME ISTACK, 0, STACK
        LOCFRAME PSTACK, 0, STACK
        LOCFRAME XSTACK, 10, STACK
        LOCFRAME IOVERLAY, 0, STATIC
        LOCFRAME DOVERLAY, 0, STATIC
        ARGFRAME ISTACK, 0, STACK
        ARGFRAME PSTACK, 0, STACK
        ARGFRAME XSTACK, 10, STACK
        ARGFRAME IOVERLAY, 0, STATIC
        ARGFRAME DOVERLAY, 0, STATIC
        FUNCALL ??vTransChiffre, ??vTransCaratere
        LOCFRAME ISTACK, 0, STACK
        LOCFRAME PSTACK, 0, STACK
        LOCFRAME XSTACK, 10, STACK
        LOCFRAME IOVERLAY, 0, STATIC
        LOCFRAME DOVERLAY, 0, STATIC
        ARGFRAME ISTACK, 0, STACK
        ARGFRAME PSTACK, 0, STACK
        ARGFRAME XSTACK, 10, STACK
        ARGFRAME IOVERLAY, 0, STATIC
        ARGFRAME DOVERLAY, 0, STATIC
        MOV     A,#-0xa
        LCALL   ?FUNC_ENTER_XDATA
        CFI DPH0 load(1, XDATA, add(CFA_XSP16, literal(-1)))
        CFI DPL0 load(1, XDATA, add(CFA_XSP16, literal(-2)))
        CFI ?RET_HIGH load(1, XDATA, add(CFA_XSP16, literal(-3)))
        CFI ?RET_LOW load(1, XDATA, add(CFA_XSP16, literal(-4)))
        CFI R7 load(1, XDATA, add(CFA_XSP16, literal(-5)))
        CFI V2 load(1, XDATA, add(CFA_XSP16, literal(-6)))
        CFI V1 load(1, XDATA, add(CFA_XSP16, literal(-7)))
        CFI V0 load(1, XDATA, add(CFA_XSP16, literal(-8)))
        CFI VB load(1, XDATA, add(CFA_XSP16, literal(-9)))
        CFI R6 load(1, XDATA, add(CFA_XSP16, literal(-10)))
        CFI CFA_SP SP+0
        CFI CFA_XSP16 add(XSP16, 10)
        ; Saved register size: 10
        ; Auto size: 0
        MOV     DPL,R2
        MOV     DPH,R3
//  581 UC ucChiffre0; // Declaration des variables
//  582 UC ucChiffre1;
//  583 UC ucChiffre2;
//  584 UC ucChiffre3;
//  585 UC ucChiffre4; // isole chaque chiffre du nombre.
//  586 
//  587 ucChiffre0 = ((uiChiffreAAfficher  % 10)    + 0x30);       // Unitee.  
        MOV     A,R4
        MOV     R0,A
        MOV     A,R5
        MOV     R1,A
        MOV     R2,#0xa
        MOV     R3,#0x0
        LCALL   ?US_DIV_MOD
        MOV     A,R2
        ADD     A,#0x30
        MOV     ?V0 + 2,A
//  588 ucChiffre1 = (((uiChiffreAAfficher / 10)    % 10) + 0x30); // Dizaine
        MOV     A,R4
        MOV     R0,A
        MOV     A,R5
        MOV     R1,A
        MOV     R2,#0xa
        MOV     R3,#0x0
        LCALL   ?US_DIV_MOD
        MOV     R2,#0xa
        MOV     R3,#0x0
        LCALL   ?US_DIV_MOD
        MOV     A,R2
        ADD     A,#0x30
        MOV     ?V0 + 1,A
//  589 ucChiffre2 = (((uiChiffreAAfficher / 100)   % 10) + 0x30); // Centaine.        
        MOV     A,R4
        MOV     R0,A
        MOV     A,R5
        MOV     R1,A
        MOV     R2,#0x64
        MOV     R3,#0x0
        LCALL   ?US_DIV_MOD
        MOV     R2,#0xa
        MOV     R3,#0x0
        LCALL   ?US_DIV_MOD
        MOV     A,R2
        ADD     A,#0x30
        MOV     ?V0 + 0,A
//  590 ucChiffre3 = (((uiChiffreAAfficher / 1000)  % 10) + 0x30); // Millier.
        MOV     A,R4
        MOV     R0,A
        MOV     A,R5
        MOV     R1,A
        MOV     R2,#-0x18
        MOV     R3,#0x3
        LCALL   ?US_DIV_MOD
        MOV     R2,#0xa
        MOV     R3,#0x0
        LCALL   ?US_DIV_MOD
        MOV     A,R2
        ADD     A,#0x30
        MOV     R6,A
//  591 ucChiffre4 = ((uiChiffreAAfficher  / 10000) + 0x30);       // Dizaine de mille.
        MOV     A,R4
        MOV     R0,A
        MOV     A,R5
        MOV     R1,A
        MOV     R2,#0x10
        MOV     R3,#0x27
        LCALL   ?US_DIV_MOD
        MOV     A,R0
        ADD     A,#0x30
        MOV     R7,A
//  592 
//  593 if(ucChiffre4 != 0x30)                          // Si Dizaine de mille  = 0
        MOV     A,#0x30
        XRL     A,R7
        JZ      ??vTransChiffre_1
//  594   {                                           // Ne l'affiche pas 
//  595    vTransCaratere(ucChiffre4);                  // Transmet les Dizaine de mille. 
        ; Setup parameters for call to function CLCommunic::vTransCaratere(UC)
        MOV     A,R7
        MOV     R1,A
        MOV     R2,DPL
        MOV     R3,DPH
        LCALL   ??vTransCaratere
//  596   }
//  597 
//  598 if((ucChiffre4 != 0x30) || (ucChiffre3 != 0x30))// Si les 2 premiers chiffres
??vTransChiffre_1:
        MOV     A,#0x30
        XRL     A,R7
        JNZ     ??vTransChiffre_2
        MOV     A,#0x30
        XRL     A,R6
        JZ      ??vTransChiffre_3
//  599   {                                             // sont different de 0.
//  600    vTransCaratere(ucChiffre3);                  // Transmet les millier.
??vTransChiffre_2:
        ; Setup parameters for call to function CLCommunic::vTransCaratere(UC)
        MOV     A,R6
        MOV     R1,A
        MOV     R2,DPL
        MOV     R3,DPH
        LCALL   ??vTransCaratere
//  601   }   
//  602 
//  603 if((ucChiffre4 != 0x30) || (ucChiffre3 != 0x30)||(ucChiffre2 != 0x30))
??vTransChiffre_3:
        MOV     A,#0x30
        XRL     A,R7
        JNZ     ??vTransChiffre_4
        MOV     A,#0x30
        XRL     A,R6
        JNZ     ??vTransChiffre_4
        MOV     A,#0x30
        XRL     A,?V0 + 0
        JZ      ??vTransChiffre_5
//  604   {                                  // Si les 3 1er chiffres sont different 
//  605                                        // de 0?    
//  606    vTransCaratere(ucChiffre2);         // Transmet les centaines.
??vTransChiffre_4:
        ; Setup parameters for call to function CLCommunic::vTransCaratere(UC)
        MOV     R1,?V0 + 0
        MOV     R2,DPL
        MOV     R3,DPH
        LCALL   ??vTransCaratere
//  607   }
//  608 
//  609 if((ucChiffre4 != 0x30)||(ucChiffre3 != 0x30)||(ucChiffre2 != 0x30)||(ucChiffre1 != 0x30)) 
??vTransChiffre_5:
        MOV     A,#0x30
        XRL     A,R7
        JNZ     ??vTransChiffre_6
        MOV     A,#0x30
        XRL     A,R6
        JNZ     ??vTransChiffre_6
        MOV     A,#0x30
        XRL     A,?V0 + 0
        JNZ     ??vTransChiffre_6
        MOV     A,#0x30
        XRL     A,?V0 + 1
        JZ      ??vTransChiffre_7
//  610                                   // Si les 4 premier chiffres sont 
//  611   {                                    // different de 0.
//  612    vTransCaratere(ucChiffre1);         // Transmet les dizianes.
??vTransChiffre_6:
        ; Setup parameters for call to function CLCommunic::vTransCaratere(UC)
        MOV     R1,?V0 + 1
        MOV     R2,DPL
        MOV     R3,DPH
        LCALL   ??vTransCaratere
//  613   }        
//  614  vTransCaratere(ucChiffre0);           // Transmetles unitees.
??vTransChiffre_7:
        ; Setup parameters for call to function CLCommunic::vTransCaratere(UC)
        MOV     R1,?V0 + 2
        MOV     R2,DPL
        MOV     R3,DPH
        LCALL   ??vTransCaratere
//  615 }   
        MOV     R7,#0x3
        LJMP    ?FUNC_LEAVE_XDATA
        CFI EndBlock cfiBlock15
//  616    

        RSEG NEAR_CODE:CODE:NOROOT(0)
//  617 UC CLCommunic :: ucLireTrameSansCheck(void)
??ucLireTrameSansCheck:
        CFI Block cfiBlock16 Using cfiCommon0
        CFI Function ??ucLireTrameSansCheck
        CODE
//  618 {
        PUSH    DPL
        CFI DPL0 Frame(CFA_SP, 3)
        CFI CFA_SP SP+-3
        PUSH    DPH
        CFI DPH0 Frame(CFA_SP, 4)
        CFI CFA_SP SP+-4
        ; Saved register size: 2
        ; Auto size: 0
//  619 ucEtatReception = INACTIF;
        MOV     DPTR,#??ucEtatReception
        MOV     A,#0x0
        MOVX    @DPTR,A
//  620 return(ucCaractereRecu);      
        MOV     DPTR,#??ucCaractereRecu
        MOVX    A,@DPTR
        MOV     R1,A
        POP     DPH
        CFI DPH0 SameValue
        CFI CFA_SP SP+-3
        POP     DPL
        CFI DPL0 SameValue
        CFI CFA_SP SP+-2
        RET
        CFI EndBlock cfiBlock16
//  621 }
//  622 

        RSEG NEAR_CODE:CODE:NOROOT(0)
//  623 UC CLCommunic :: ucLireEtatReception(void)
??ucLireEtatReception:
        CFI Block cfiBlock17 Using cfiCommon0
        CFI Function ??ucLireEtatReception
        CODE
//  624 {
        PUSH    DPL
        CFI DPL0 Frame(CFA_SP, 3)
        CFI CFA_SP SP+-3
        PUSH    DPH
        CFI DPH0 Frame(CFA_SP, 4)
        CFI CFA_SP SP+-4
        ; Saved register size: 2
        ; Auto size: 0
//  625 return(ucEtatReception);            // Retourne l'etat de la trame.
        MOV     DPTR,#??ucEtatReception
        MOVX    A,@DPTR
        MOV     R1,A
        POP     DPH
        CFI DPH0 SameValue
        CFI CFA_SP SP+-3
        POP     DPL
        CFI DPL0 SameValue
        CFI CFA_SP SP+-2
        RET
        CFI EndBlock cfiBlock17
//  626 }

        COMMON INTVEC:CODE:ROOT(0)
        ORG 35
`??vInteruptSerial??INTVEC 35`:
        LJMP       (??vInteruptSerial)

        RSEG XDATA_ID:CODE:NOROOT(0)
`?<Initializer for ucLongueurTrame>`:
        DATA8
        DB 4

        RSEG XDATA_ID:CODE:NOROOT(0)
`?<Initializer for ucLongueurTampon>`:
        DATA8
        DB 12

        END
//  627 
//  628 
//  629 //LinuxLinuxLinuxLinuxLinuxLinuxLinuxLinuxLinuxLinuxLinuxLinuxLinuxLinuxLinuxTUX
//  630 
//  631 
//  632 
//  633 
//  634 
//  635 
// 
//     3 bytes in segment INTVEC
// 1 218 bytes in segment NEAR_CODE
//     7 bytes in segment SFR_AN
//     2 bytes in segment XDATA_I
//     2 bytes in segment XDATA_ID
//    14 bytes in segment XDATA_Z
// 
// 1 220 bytes of CODE  memory (+ 3 bytes shared)
//     0 bytes of DATA  memory (+ 7 bytes shared)
//    16 bytes of XDATA memory
//
//Errors: none
//Warnings: none
