///////////////////////////////////////////////////////////////////////////////
//                                                                            /
// IAR C/C++ Compiler V8.10.1.40194/W32 for 8051        25/Nov/2014  19:57:45 /
// Copyright 2004-2011 IAR Systems AB.                                        /
//                                                                            /
//    Core               =  plain                                             /
//    Code model         =  near                                              /
//    Data model         =  large                                             /
//    Calling convention =  xdata reentrant                                   /
//    Constant location  =  data                                              /
//    Dptr setup         =  1,16                                              /
//    Source file        =  C:\Synchro\Dropbox\Travaux\Automne                /
//                          2014\ProjetSession5\ProgrammeDuFESTO\ProgrammeFES /
//                          TO\CLFestoCaptors.cpp                             /
//    Command line       =  "C:\Synchro\Dropbox\Travaux\Automne               /
//                          2014\ProjetSession5\ProgrammeDuFESTO\ProgrammeFES /
//                          TO\CLFestoCaptors.cpp" -D UPSD3254A               /
//                          --preprocess=cl "C:\Synchro\Dropbox\Travaux\Autom /
//                          ne 2014\ProjetSession5\ProgrammeDuFESTO\Programme /
//                          FESTO\UPSD\List\" -lC "C:\Synchro\Dropbox\Travaux /
//                          \Automne 2014\ProjetSession5\ProgrammeDuFESTO\Pro /
//                          grammeFESTO\UPSD\List\" -lA                       /
//                          "C:\Synchro\Dropbox\Travaux\Automne               /
//                          2014\ProjetSession5\ProgrammeDuFESTO\ProgrammeFES /
//                          TO\UPSD\List\" -o "C:\Synchro\Dropbox\Travaux\Aut /
//                          omne 2014\ProjetSession5\ProgrammeDuFESTO\Program /
//                          meFESTO\UPSD\Obj\" -e --no_cse --no_unroll        /
//                          --no_inline --no_code_motion --no_tbaa --debug    /
//                          --core=plain --dptr=16,1 --data_model=large       /
//                          --code_model=near --calling_convention=xdata_reen /
//                          trant --place_constants=data --nr_virtual_regs 8  /
//                          --dlib_config "C:\Program Files (x86)\IAR         /
//                          Systems\Embedded Workbench                        /
//                          6.0\8051\LIB\DLIB\dl8051Normal.h" -Ol --eec++     /
//    List file          =  C:\Synchro\Dropbox\Travaux\Automne                /
//                          2014\ProjetSession5\ProgrammeDuFESTO\ProgrammeFES /
//                          TO\UPSD\List\CLFestoCaptors.s51                   /
//                                                                            /
//                                                                            /
///////////////////////////////////////////////////////////////////////////////

        NAME CLFestoCaptors

        RTMODEL "__SystemLibrary", "DLib"
        RTMODEL "__calling_convention", "xdata_reentrant"
        RTMODEL "__code_model", "near"
        RTMODEL "__core", "plain"
        RTMODEL "__data_model", "large"
        RTMODEL "__dptr_size", "16"
        RTMODEL "__extended_stack", "disabled"
        RTMODEL "__location_for_constants", "data"
        RTMODEL "__number_of_dptrs", "1"
        RTMODEL "__rt_version", "1"

        RSEG DOVERLAY:DATA:NOROOT(0)
        RSEG IOVERLAY:IDATA:NOROOT(0)
        RSEG ISTACK:IDATA:NOROOT(0)
        RSEG PSTACK:XDATA:NOROOT(0)
        RSEG XSTACK:XDATA:NOROOT(0)

        ERROR
//NOTE: This module defines or uses C++ features that are not
//      accessible from assembler code. Assembling this file will
//      not produce an equivalent object file to the one produced
//      by the C++ compiler.

        EXTERN ?FUNC_ENTER_XDATA
        EXTERN ?FUNC_LEAVE_XDATA
        EXTERN ?V0

        PUBLIC ??CLFestoCaptors
        FUNCTION ??CLFestoCaptors,021203H
        ARGFRAME XSTACK, 0, STACK
        ARGFRAME IOVERLAY, 0, STATIC
        ARGFRAME DOVERLAY, 0, STATIC
        LOCFRAME XSTACK, 8, STACK
        PUBLIC ??CLFestoCaptors_1
        FUNCTION ??CLFestoCaptors_1,021203H
        ARGFRAME XSTACK, 9, STACK
        ARGFRAME IOVERLAY, 0, STATIC
        ARGFRAME DOVERLAY, 0, STATIC
        LOCFRAME XSTACK, 8, STACK
        PUBLIC `??delete ~CLFestoCaptors`
        FUNCTION `??delete ~CLFestoCaptors`,021203H
        ARGFRAME XSTACK, 0, STACK
        LOCFRAME XSTACK, 8, STACK
        PUBLIC `??new CLFestoCaptors`
        FUNCTION `??new CLFestoCaptors`,021203H
        ARGFRAME XSTACK, 0, STACK
        LOCFRAME ISTACK, 2, STACK
        PUBLIC `??new CLFestoCaptors_1`
        FUNCTION `??new CLFestoCaptors_1`,021203H
        ARGFRAME XSTACK, 0, STACK
        LOCFRAME XSTACK, 9, STACK
        PUBLIC ??readCapacitiveCaptor
        FUNCTION ??readCapacitiveCaptor,0203H
        ARGFRAME XSTACK, 0, STACK
        PUBLIC ??readHeightCaptor
        FUNCTION ??readHeightCaptor,0203H
        ARGFRAME XSTACK, 0, STACK
        PUBLIC ??readInductiveCaptor
        FUNCTION ??readInductiveCaptor,0203H
        ARGFRAME XSTACK, 0, STACK
        PUBLIC ??readOpticCaptor
        FUNCTION ??readOpticCaptor,0203H
        ARGFRAME XSTACK, 0, STACK
        PUBLIC ??readPreVentouseCaptor
        FUNCTION ??readPreVentouseCaptor,0203H
        ARGFRAME XSTACK, 0, STACK
        PUBLIC `?~CLFestoCaptors`
        FUNCTION `?~CLFestoCaptors`,021203H
        ARGFRAME XSTACK, 8, STACK
        ARGFRAME IOVERLAY, 0, STATIC
        ARGFRAME DOVERLAY, 0, STATIC
        LOCFRAME XSTACK, 8, STACK
        
        CFI Names cfiNames0
        CFI StackFrame CFA_SP SP IDATA
        CFI StackFrame CFA_PSP16 PSP16 XDATA
        CFI StackFrame CFA_XSP16 XSP16 XDATA
        CFI StaticOverlayFrame CFA_IOVERLAY IOVERLAY
        CFI StaticOverlayFrame CFA_DOVERLAY DOVERLAY
        CFI Resource `PSW.CY`:1, `B.BR0`:1, `B.BR1`:1, `B.BR2`:1, `B.BR3`:1
        CFI Resource `B.BR4`:1, `B.BR5`:1, `B.BR6`:1, `B.BR7`:1, `VB.BR8`:1
        CFI Resource `VB.BR9`:1, `VB.BR10`:1, `VB.BR11`:1, `VB.BR12`:1
        CFI Resource `VB.BR13`:1, `VB.BR14`:1, `VB.BR15`:1, VB:8, B:8, A:8
        CFI Resource PSW:8, DPL0:8, DPH0:8, R0:8, R1:8, R2:8, R3:8, R4:8, R5:8
        CFI Resource R6:8, R7:8, V0:8, V1:8, V2:8, V3:8, V4:8, V5:8, V6:8, V7:8
        CFI Resource SP:8, PSPH:8, PSPL:8, PSP16:16, XSPH:8, XSPL:8, XSP16:16
        CFI VirtualResource ?RET:16, ?RET_HIGH:8, ?RET_LOW:8
        CFI ResourceParts PSP16 PSPH, PSPL
        CFI ResourceParts XSP16 XSPH, XSPL
        CFI ResourceParts ?RET ?RET_HIGH, ?RET_LOW
        CFI EndNames cfiNames0
        
        CFI Common cfiCommon0 Using cfiNames0
        CFI CodeAlign 1
        CFI DataAlign -1
        CFI ReturnAddress ?RET CODE
        CFI CFA_DOVERLAY Used
        CFI CFA_IOVERLAY Used
        CFI CFA_SP SP+-2
        CFI CFA_PSP16 PSP16+0
        CFI CFA_XSP16 XSP16+0
        CFI `PSW.CY` SameValue
        CFI `B.BR0` SameValue
        CFI `B.BR1` SameValue
        CFI `B.BR2` SameValue
        CFI `B.BR3` SameValue
        CFI `B.BR4` SameValue
        CFI `B.BR5` SameValue
        CFI `B.BR6` SameValue
        CFI `B.BR7` SameValue
        CFI `VB.BR8` SameValue
        CFI `VB.BR9` SameValue
        CFI `VB.BR10` SameValue
        CFI `VB.BR11` SameValue
        CFI `VB.BR12` SameValue
        CFI `VB.BR13` SameValue
        CFI `VB.BR14` SameValue
        CFI `VB.BR15` SameValue
        CFI VB SameValue
        CFI B Undefined
        CFI A Undefined
        CFI PSW SameValue
        CFI DPL0 SameValue
        CFI DPH0 SameValue
        CFI R0 Undefined
        CFI R1 Undefined
        CFI R2 Undefined
        CFI R3 Undefined
        CFI R4 Undefined
        CFI R5 Undefined
        CFI R6 SameValue
        CFI R7 SameValue
        CFI V0 SameValue
        CFI V1 SameValue
        CFI V2 SameValue
        CFI V3 SameValue
        CFI V4 SameValue
        CFI V5 SameValue
        CFI V6 SameValue
        CFI V7 SameValue
        CFI PSPH Undefined
        CFI PSPL Undefined
        CFI XSPH Undefined
        CFI XSPL Undefined
        CFI ?RET Concat
        CFI ?RET_HIGH Frame(CFA_SP, 2)
        CFI ?RET_LOW Frame(CFA_SP, 1)
        CFI EndCommon cfiCommon0
        
        EXTERN `??operator new`
        FUNCTION `??operator new`,010202H
        ARGFRAME ISTACK, 2, STACK
        ARGFRAME PSTACK, 0, STACK
        ARGFRAME XSTACK, 9, STACK
        ARGFRAME IOVERLAY, 0, STATIC
        ARGFRAME DOVERLAY, 0, STATIC
        EXTERN `??operator delete`
        FUNCTION `??operator delete`,010202H
        ARGFRAME ISTACK, 0, STACK
        ARGFRAME PSTACK, 0, STACK
        ARGFRAME XSTACK, 8, STACK
        ARGFRAME IOVERLAY, 0, STATIC
        ARGFRAME DOVERLAY, 0, STATIC
        EXTERN ??CLSPI
        FUNCTION ??CLSPI,0202H
        ARGFRAME ISTACK, 0, STACK
        ARGFRAME PSTACK, 0, STACK
        ARGFRAME XSTACK, 8, STACK
        ARGFRAME IOVERLAY, 0, STATIC
        ARGFRAME DOVERLAY, 0, STATIC
        EXTERN ??CLI2CPort
        FUNCTION ??CLI2CPort,0202H
        ARGFRAME ISTACK, 0, STACK
        ARGFRAME PSTACK, 0, STACK
        ARGFRAME XSTACK, 8, STACK
        ARGFRAME IOVERLAY, 0, STATIC
        ARGFRAME DOVERLAY, 0, STATIC
        EXTERN `?~CLI2CPort`
        FUNCTION `?~CLI2CPort`,0202H
        ARGFRAME ISTACK, 0, STACK
        ARGFRAME PSTACK, 0, STACK
        ARGFRAME XSTACK, 8, STACK
        ARGFRAME IOVERLAY, 0, STATIC
        ARGFRAME DOVERLAY, 0, STATIC
        EXTERN `?~CLSPI`
        FUNCTION `?~CLSPI`,0202H
        ARGFRAME ISTACK, 0, STACK
        ARGFRAME PSTACK, 0, STACK
        ARGFRAME XSTACK, 8, STACK
        ARGFRAME IOVERLAY, 0, STATIC
        ARGFRAME DOVERLAY, 0, STATIC


        RSEG NEAR_CODE:CODE:NOROOT(0)
// __near_func __xdata_reentrant CLFestoCaptors &CLFestoCaptors::new CLFestoCaptors()
`??new CLFestoCaptors`:
        CFI Block cfiBlock0 Using cfiCommon0
        CFI Function `??new CLFestoCaptors`
        CODE
        FUNCALL `??new CLFestoCaptors`, `??operator new`
        LOCFRAME ISTACK, 2, STACK
        LOCFRAME PSTACK, 0, STACK
        LOCFRAME XSTACK, 0, STACK
        LOCFRAME IOVERLAY, 0, STATIC
        LOCFRAME DOVERLAY, 0, STATIC
        ARGFRAME ISTACK, 2, STACK
        ARGFRAME PSTACK, 0, STACK
        ARGFRAME XSTACK, 0, STACK
        ARGFRAME IOVERLAY, 0, STATIC
        ARGFRAME DOVERLAY, 0, STATIC
        FUNCALL `??new CLFestoCaptors`, ??CLFestoCaptors
        LOCFRAME ISTACK, 2, STACK
        LOCFRAME PSTACK, 0, STACK
        LOCFRAME XSTACK, 0, STACK
        LOCFRAME IOVERLAY, 0, STATIC
        LOCFRAME DOVERLAY, 0, STATIC
        ARGFRAME ISTACK, 2, STACK
        ARGFRAME PSTACK, 0, STACK
        ARGFRAME XSTACK, 0, STACK
        ARGFRAME IOVERLAY, 0, STATIC
        ARGFRAME DOVERLAY, 0, STATIC
        PUSH    ?V0 + 0
        CFI V0 Frame(CFA_SP, 3)
        CFI CFA_SP SP+-3
        PUSH    ?V0 + 1
        CFI V1 Frame(CFA_SP, 4)
        CFI CFA_SP SP+-4
        ; Saved register size: 2
        ; Auto size: 0
        ; Setup parameters for call to function operator new(unsigned int)
        MOV     R2,#0x3
        MOV     R3,#0x0
        LCALL   `??operator new`
        MOV     ?V0 + 0,R2
        MOV     ?V0 + 1,R3
        MOV     R0,?V0 + 0
        MOV     R1,?V0 + 1
        MOV     A,R0
        MOV     R2,A
        MOV     A,R1
        MOV     R3,A
        MOV     A,R0
        ORL     A,R1
        JZ      `??new CLFestoCaptors_2`
        ; Setup parameters for call to function CLFestoCaptors::CLFestoCaptors()
        LCALL   ??CLFestoCaptors
        MOV     ?V0 + 0,R2
        MOV     ?V0 + 1,R3
        MOV     R2,?V0 + 0
        MOV     R3,?V0 + 1
        SJMP    `??new CLFestoCaptors_3`
`??new CLFestoCaptors_2`:
        MOV     R2,#0x0
        MOV     R3,#0x0
`??new CLFestoCaptors_3`:
        POP     ?V0 + 1
        CFI V1 SameValue
        CFI CFA_SP SP+-3
        POP     ?V0 + 0
        CFI V0 SameValue
        CFI CFA_SP SP+-2
        RET
        CFI EndBlock cfiBlock0

        RSEG NEAR_CODE:CODE:NOROOT(0)
// __near_func __xdata_reentrant CLFestoCaptors &CLFestoCaptors::new CLFestoCaptors(UC)
`??new CLFestoCaptors_1`:
        CFI Block cfiBlock1 Using cfiCommon0
        CFI Function `??new CLFestoCaptors_1`
        CODE
        FUNCALL `??new CLFestoCaptors_1`, `??operator new`
        LOCFRAME ISTACK, 0, STACK
        LOCFRAME PSTACK, 0, STACK
        LOCFRAME XSTACK, 9, STACK
        LOCFRAME IOVERLAY, 0, STATIC
        LOCFRAME DOVERLAY, 0, STATIC
        ARGFRAME ISTACK, 0, STACK
        ARGFRAME PSTACK, 0, STACK
        ARGFRAME XSTACK, 9, STACK
        ARGFRAME IOVERLAY, 0, STATIC
        ARGFRAME DOVERLAY, 0, STATIC
        FUNCALL `??new CLFestoCaptors_1`, ??CLFestoCaptors_1
        LOCFRAME ISTACK, 0, STACK
        LOCFRAME PSTACK, 0, STACK
        LOCFRAME XSTACK, 9, STACK
        LOCFRAME IOVERLAY, 0, STATIC
        LOCFRAME DOVERLAY, 0, STATIC
        ARGFRAME ISTACK, 0, STACK
        ARGFRAME PSTACK, 0, STACK
        ARGFRAME XSTACK, 9, STACK
        ARGFRAME IOVERLAY, 0, STATIC
        ARGFRAME DOVERLAY, 0, STATIC
        MOV     A,#-0x9
        LCALL   ?FUNC_ENTER_XDATA
        CFI DPH0 load(1, XDATA, add(CFA_XSP16, literal(-1)))
        CFI DPL0 load(1, XDATA, add(CFA_XSP16, literal(-2)))
        CFI ?RET_HIGH load(1, XDATA, add(CFA_XSP16, literal(-3)))
        CFI ?RET_LOW load(1, XDATA, add(CFA_XSP16, literal(-4)))
        CFI R7 load(1, XDATA, add(CFA_XSP16, literal(-5)))
        CFI V1 load(1, XDATA, add(CFA_XSP16, literal(-6)))
        CFI V0 load(1, XDATA, add(CFA_XSP16, literal(-7)))
        CFI VB load(1, XDATA, add(CFA_XSP16, literal(-8)))
        CFI R6 load(1, XDATA, add(CFA_XSP16, literal(-9)))
        CFI CFA_SP SP+0
        CFI CFA_XSP16 add(XSP16, 9)
        ; Saved register size: 9
        ; Auto size: 0
        MOV     A,R1
        MOV     R6,A
        ; Setup parameters for call to function operator new(unsigned int)
        MOV     R2,#0x3
        MOV     R3,#0x0
        LCALL   `??operator new`
        MOV     ?V0 + 0,R2
        MOV     ?V0 + 1,R3
        MOV     R0,?V0 + 0
        MOV     R1,?V0 + 1
        MOV     A,R0
        MOV     R2,A
        MOV     A,R1
        MOV     R3,A
        MOV     A,R0
        ORL     A,R1
        JZ      `??new CLFestoCaptors_4`
        ; Setup parameters for call to function CLFestoCaptors::CLFestoCaptors(UC)
        MOV     A,R6
        MOV     R1,A
        LCALL   ??CLFestoCaptors_1
        MOV     ?V0 + 0,R2
        MOV     ?V0 + 1,R3
        MOV     R2,?V0 + 0
        MOV     R3,?V0 + 1
        SJMP    `??new CLFestoCaptors_5`
`??new CLFestoCaptors_4`:
        MOV     R2,#0x0
        MOV     R3,#0x0
`??new CLFestoCaptors_5`:
        MOV     R7,#0x2
        LJMP    ?FUNC_LEAVE_XDATA
        CFI EndBlock cfiBlock1

        RSEG NEAR_CODE:CODE:NOROOT(0)
// __near_func __xdata_reentrant void CLFestoCaptors::delete ~CLFestoCaptors(CLFestoCaptors *)
`??delete ~CLFestoCaptors`:
        CFI Block cfiBlock2 Using cfiCommon0
        CFI Function `??delete ~CLFestoCaptors`
        CODE
        FUNCALL `??delete ~CLFestoCaptors`, `?~CLFestoCaptors`
        LOCFRAME ISTACK, 0, STACK
        LOCFRAME PSTACK, 0, STACK
        LOCFRAME XSTACK, 8, STACK
        LOCFRAME IOVERLAY, 0, STATIC
        LOCFRAME DOVERLAY, 0, STATIC
        ARGFRAME ISTACK, 0, STACK
        ARGFRAME PSTACK, 0, STACK
        ARGFRAME XSTACK, 8, STACK
        ARGFRAME IOVERLAY, 0, STATIC
        ARGFRAME DOVERLAY, 0, STATIC
        FUNCALL `??delete ~CLFestoCaptors`, `??operator delete`
        LOCFRAME ISTACK, 0, STACK
        LOCFRAME PSTACK, 0, STACK
        LOCFRAME XSTACK, 8, STACK
        LOCFRAME IOVERLAY, 0, STATIC
        LOCFRAME DOVERLAY, 0, STATIC
        ARGFRAME ISTACK, 0, STACK
        ARGFRAME PSTACK, 0, STACK
        ARGFRAME XSTACK, 8, STACK
        ARGFRAME IOVERLAY, 0, STATIC
        ARGFRAME DOVERLAY, 0, STATIC
        MOV     A,#-0x8
        LCALL   ?FUNC_ENTER_XDATA
        CFI DPH0 load(1, XDATA, add(CFA_XSP16, literal(-1)))
        CFI DPL0 load(1, XDATA, add(CFA_XSP16, literal(-2)))
        CFI ?RET_HIGH load(1, XDATA, add(CFA_XSP16, literal(-3)))
        CFI ?RET_LOW load(1, XDATA, add(CFA_XSP16, literal(-4)))
        CFI R7 load(1, XDATA, add(CFA_XSP16, literal(-5)))
        CFI V0 load(1, XDATA, add(CFA_XSP16, literal(-6)))
        CFI VB load(1, XDATA, add(CFA_XSP16, literal(-7)))
        CFI R6 load(1, XDATA, add(CFA_XSP16, literal(-8)))
        CFI CFA_SP SP+0
        CFI CFA_XSP16 add(XSP16, 8)
        ; Saved register size: 8
        ; Auto size: 0
        MOV     A,R2
        MOV     R6,A
        MOV     A,R3
        MOV     R7,A
        MOV     A,R6
        ORL     A,R7
        JZ      `??delete ~CLFestoCaptors_1`
        ; Setup parameters for call to function CLFestoCaptors::~CLFestoCaptors()
        MOV     A,R6
        MOV     R2,A
        MOV     A,R7
        MOV     R3,A
        LCALL   `?~CLFestoCaptors`
        ; Setup parameters for call to function operator delete(void *)
        MOV     A,R6
        MOV     R2,A
        MOV     A,R7
        MOV     R3,A
        LCALL   `??operator delete`
`??delete ~CLFestoCaptors_1`:
        MOV     R7,#0x1
        LJMP    ?FUNC_LEAVE_XDATA
        CFI EndBlock cfiBlock2
// C:\Synchro\Dropbox\Travaux\Automne 2014\ProjetSession5\ProgrammeDuFESTO\ProgrammeFESTO\CLFestoCaptors.cpp
//    1 // **************************CLFestoCaptors.cpp
//    2 // Auteur:       Prenom Nom
//    3 // Date:         19 Octobre 2014
//    4 // Version:      1.0
//    5 // Modification: Aucune
//    6 //
//    7 // Compilateur:  IAR 8.1
//    8 //
//    9 // Description:
//   10 // *****************************************************************************
//   11 #include "_DeclarationGenerale.h"  // Raccourcis de programmation & variables
//   12 #include "CLFestoCaptors.h"             
//   13 
//   14 
//   15 //******************************************************************************
//   16 //                            LE CONSTRUCTEUR PAR DEFAUT
//   17 // *****************************************************************************

        RSEG NEAR_CODE:CODE:NOROOT(0)
//   18 CLFestoCaptors :: CLFestoCaptors(void)
??CLFestoCaptors:
        CFI Block cfiBlock3 Using cfiCommon0
        CFI Function ??CLFestoCaptors
        CODE
        FUNCALL ??CLFestoCaptors, ??CLSPI
        LOCFRAME ISTACK, 0, STACK
        LOCFRAME PSTACK, 0, STACK
        LOCFRAME XSTACK, 8, STACK
        LOCFRAME IOVERLAY, 0, STATIC
        LOCFRAME DOVERLAY, 0, STATIC
        ARGFRAME ISTACK, 0, STACK
        ARGFRAME PSTACK, 0, STACK
        ARGFRAME XSTACK, 8, STACK
        ARGFRAME IOVERLAY, 0, STATIC
        ARGFRAME DOVERLAY, 0, STATIC
        FUNCALL ??CLFestoCaptors, ??CLI2CPort
        LOCFRAME ISTACK, 0, STACK
        LOCFRAME PSTACK, 0, STACK
        LOCFRAME XSTACK, 8, STACK
        LOCFRAME IOVERLAY, 0, STATIC
        LOCFRAME DOVERLAY, 0, STATIC
        ARGFRAME ISTACK, 0, STACK
        ARGFRAME PSTACK, 0, STACK
        ARGFRAME XSTACK, 8, STACK
        ARGFRAME IOVERLAY, 0, STATIC
        ARGFRAME DOVERLAY, 0, STATIC
        MOV     A,#-0x8
        LCALL   ?FUNC_ENTER_XDATA
        CFI DPH0 load(1, XDATA, add(CFA_XSP16, literal(-1)))
        CFI DPL0 load(1, XDATA, add(CFA_XSP16, literal(-2)))
        CFI ?RET_HIGH load(1, XDATA, add(CFA_XSP16, literal(-3)))
        CFI ?RET_LOW load(1, XDATA, add(CFA_XSP16, literal(-4)))
        CFI R7 load(1, XDATA, add(CFA_XSP16, literal(-5)))
        CFI V0 load(1, XDATA, add(CFA_XSP16, literal(-6)))
        CFI VB load(1, XDATA, add(CFA_XSP16, literal(-7)))
        CFI R6 load(1, XDATA, add(CFA_XSP16, literal(-8)))
        CFI CFA_SP SP+0
        CFI CFA_XSP16 add(XSP16, 8)
        ; Saved register size: 8
        ; Auto size: 0
        MOV     A,R2
        MOV     R6,A
        MOV     A,R3
        MOV     R7,A
//   19 {
        ; Setup parameters for call to function CLSPI::CLSPI()
        MOV     A,R6
        MOV     R2,A
        MOV     A,R7
        MOV     R3,A
        LCALL   ??CLSPI
        ; Setup parameters for call to function CLI2CPort::CLI2CPort()
        MOV     DPL,R6
        MOV     DPH,R7
        INC     DPTR
        MOV     R2,DPL
        MOV     R3,DPH
        LCALL   ??CLI2CPort
//   20 
//   21 }
        MOV     A,R6
        MOV     R2,A
        MOV     A,R7
        MOV     R3,A
        MOV     R7,#0x1
        LJMP    ?FUNC_LEAVE_XDATA
        CFI EndBlock cfiBlock3
//   22 
//   23 //******************************************************************************
//   24 //                            LE CONSTRUCTEUR INITIALISATEUR
//   25 // *****************************************************************************

        RSEG NEAR_CODE:CODE:NOROOT(0)
//   26 CLFestoCaptors :: CLFestoCaptors(UC ucParametre)
??CLFestoCaptors_1:
        CFI Block cfiBlock4 Using cfiCommon0
        CFI Function ??CLFestoCaptors_1
        CODE
        FUNCALL ??CLFestoCaptors_1, ??CLSPI
        LOCFRAME ISTACK, 0, STACK
        LOCFRAME PSTACK, 0, STACK
        LOCFRAME XSTACK, 8, STACK
        LOCFRAME IOVERLAY, 0, STATIC
        LOCFRAME DOVERLAY, 0, STATIC
        ARGFRAME ISTACK, 0, STACK
        ARGFRAME PSTACK, 0, STACK
        ARGFRAME XSTACK, 8, STACK
        ARGFRAME IOVERLAY, 0, STATIC
        ARGFRAME DOVERLAY, 0, STATIC
        FUNCALL ??CLFestoCaptors_1, ??CLI2CPort
        LOCFRAME ISTACK, 0, STACK
        LOCFRAME PSTACK, 0, STACK
        LOCFRAME XSTACK, 8, STACK
        LOCFRAME IOVERLAY, 0, STATIC
        LOCFRAME DOVERLAY, 0, STATIC
        ARGFRAME ISTACK, 0, STACK
        ARGFRAME PSTACK, 0, STACK
        ARGFRAME XSTACK, 8, STACK
        ARGFRAME IOVERLAY, 0, STATIC
        ARGFRAME DOVERLAY, 0, STATIC
        MOV     A,#-0x8
        LCALL   ?FUNC_ENTER_XDATA
        CFI DPH0 load(1, XDATA, add(CFA_XSP16, literal(-1)))
        CFI DPL0 load(1, XDATA, add(CFA_XSP16, literal(-2)))
        CFI ?RET_HIGH load(1, XDATA, add(CFA_XSP16, literal(-3)))
        CFI ?RET_LOW load(1, XDATA, add(CFA_XSP16, literal(-4)))
        CFI R7 load(1, XDATA, add(CFA_XSP16, literal(-5)))
        CFI V0 load(1, XDATA, add(CFA_XSP16, literal(-6)))
        CFI VB load(1, XDATA, add(CFA_XSP16, literal(-7)))
        CFI R6 load(1, XDATA, add(CFA_XSP16, literal(-8)))
        CFI CFA_SP SP+0
        CFI CFA_XSP16 add(XSP16, 8)
        ; Saved register size: 8
        ; Auto size: 0
        MOV     A,R2
        MOV     R6,A
        MOV     A,R3
        MOV     R7,A
//   27 {
        ; Setup parameters for call to function CLSPI::CLSPI()
        MOV     A,R6
        MOV     R2,A
        MOV     A,R7
        MOV     R3,A
        LCALL   ??CLSPI
        ; Setup parameters for call to function CLI2CPort::CLI2CPort()
        MOV     DPL,R6
        MOV     DPH,R7
        INC     DPTR
        MOV     R2,DPL
        MOV     R3,DPH
        LCALL   ??CLI2CPort
//   28 
//   29 }
        MOV     A,R6
        MOV     R2,A
        MOV     A,R7
        MOV     R3,A
        MOV     R7,#0x1
        LJMP    ?FUNC_LEAVE_XDATA
        CFI EndBlock cfiBlock4
//   30 
//   31 // *****************************************************************************
//   32 //                            LE DESTRUCTEUR
//   33 // *****************************************************************************

        RSEG NEAR_CODE:CODE:NOROOT(0)
//   34 CLFestoCaptors :: ~CLFestoCaptors(void)
`?~CLFestoCaptors`:
        CFI Block cfiBlock5 Using cfiCommon0
        CFI Function `?~CLFestoCaptors`
        CODE
//   35 {
        FUNCALL `?~CLFestoCaptors`, `?~CLI2CPort`
        LOCFRAME ISTACK, 0, STACK
        LOCFRAME PSTACK, 0, STACK
        LOCFRAME XSTACK, 8, STACK
        LOCFRAME IOVERLAY, 0, STATIC
        LOCFRAME DOVERLAY, 0, STATIC
        ARGFRAME ISTACK, 0, STACK
        ARGFRAME PSTACK, 0, STACK
        ARGFRAME XSTACK, 8, STACK
        ARGFRAME IOVERLAY, 0, STATIC
        ARGFRAME DOVERLAY, 0, STATIC
        FUNCALL `?~CLFestoCaptors`, `?~CLSPI`
        LOCFRAME ISTACK, 0, STACK
        LOCFRAME PSTACK, 0, STACK
        LOCFRAME XSTACK, 8, STACK
        LOCFRAME IOVERLAY, 0, STATIC
        LOCFRAME DOVERLAY, 0, STATIC
        ARGFRAME ISTACK, 0, STACK
        ARGFRAME PSTACK, 0, STACK
        ARGFRAME XSTACK, 8, STACK
        ARGFRAME IOVERLAY, 0, STATIC
        ARGFRAME DOVERLAY, 0, STATIC
        MOV     A,#-0x8
        LCALL   ?FUNC_ENTER_XDATA
        CFI DPH0 load(1, XDATA, add(CFA_XSP16, literal(-1)))
        CFI DPL0 load(1, XDATA, add(CFA_XSP16, literal(-2)))
        CFI ?RET_HIGH load(1, XDATA, add(CFA_XSP16, literal(-3)))
        CFI ?RET_LOW load(1, XDATA, add(CFA_XSP16, literal(-4)))
        CFI R7 load(1, XDATA, add(CFA_XSP16, literal(-5)))
        CFI V0 load(1, XDATA, add(CFA_XSP16, literal(-6)))
        CFI VB load(1, XDATA, add(CFA_XSP16, literal(-7)))
        CFI R6 load(1, XDATA, add(CFA_XSP16, literal(-8)))
        CFI CFA_SP SP+0
        CFI CFA_XSP16 add(XSP16, 8)
        ; Saved register size: 8
        ; Auto size: 0
        MOV     A,R2
        MOV     R6,A
        MOV     A,R3
        MOV     R7,A
//   36 
//   37 }
        ; Setup parameters for call to function CLI2CPort::~CLI2CPort()
        MOV     DPL,R6
        MOV     DPH,R7
        INC     DPTR
        MOV     R2,DPL
        MOV     R3,DPH
        LCALL   `?~CLI2CPort`
        ; Setup parameters for call to function CLSPI::~CLSPI()
        MOV     A,R6
        MOV     R2,A
        MOV     A,R7
        MOV     R3,A
        LCALL   `?~CLSPI`
        MOV     R7,#0x1
        LJMP    ?FUNC_LEAVE_XDATA
        CFI EndBlock cfiBlock5
//   38 
//   39 // **********************FONCTION: readCapacitiveCaptor()
//   40 //
//   41 // DESCRIPTION        : Lit le capteur capacitif et retourne la valeur lue
//   42 //
//   43 // INCLUDE            : "_DeclarationGenerale.h" "CLFestoCaptors.h"
//   44 //                      
//   45 // PROTOTYPE          : UC readOpticCaptor(void)
//   46 //
//   47 // PROCEDURE D'APPEL  : data = readOpticCaptor()
//   48 //
//   49 // PARAMETRE D'ENTREE : AUCUN
//   50 //
//   51 // PARAMETRE DE SORTIE: UC
//   52 //
//   53 // Auteur             : Vincent Chouinard
//   54 // Date               : 25 novembre 2014   (Version 1.0)
//   55 // Modification       :
//   56 // *****************************************************************************

        RSEG NEAR_CODE:CODE:NOROOT(0)
//   57 UC CLFestoCaptors :: readCapacitiveCaptor (void)
??readCapacitiveCaptor:
        CFI Block cfiBlock6 Using cfiCommon0
        CFI Function ??readCapacitiveCaptor
        CODE
//   58 {
        ; Saved register size: 0
        ; Auto size: 0
//   59 return(0);
        MOV     R1,#0x0
        RET
        CFI EndBlock cfiBlock6
//   60 }
//   61 
//   62 // **********************FONCTION: readOpticCaptor()
//   63 //
//   64 // DESCRIPTION        : Lit le capteur optique et retourne la valeur lue
//   65 //
//   66 // INCLUDE            : "_DeclarationGenerale.h" "CLFestoCaptors.h"
//   67 //                      
//   68 // PROTOTYPE          : UC readOpticCaptor(void)
//   69 //
//   70 // PROCEDURE D'APPEL  : data = readOpticCaptor()
//   71 //
//   72 // PARAMETRE D'ENTREE : AUCUN
//   73 //
//   74 // PARAMETRE DE SORTIE: UC
//   75 //
//   76 // Auteur             : Vincent Chouinard
//   77 // Date               : 25 novembre 2014   (Version 1.0)
//   78 // Modification       :
//   79 // *****************************************************************************

        RSEG NEAR_CODE:CODE:NOROOT(0)
//   80 UC CLFestoCaptors :: readOpticCaptor (void)
??readOpticCaptor:
        CFI Block cfiBlock7 Using cfiCommon0
        CFI Function ??readOpticCaptor
        CODE
//   81 {
        ; Saved register size: 0
        ; Auto size: 0
//   82 return(0); 
        MOV     R1,#0x0
        RET
        CFI EndBlock cfiBlock7
//   83 }
//   84 
//   85 // **********************FONCTION: readMagneticCaptor()
//   86 //
//   87 // DESCRIPTION        : Lit le capteur magnétique et retourne la valeur lue
//   88 //
//   89 // INCLUDE            : "_DeclarationGenerale.h" "CLFestoCaptors.h"
//   90 //                      
//   91 // PROTOTYPE          : UC readInductiveCaptor(void)
//   92 //
//   93 // PROCEDURE D'APPEL  : data = readInductiveCaptor()
//   94 //
//   95 // PARAMETRE D'ENTREE : AUCUN
//   96 //
//   97 // PARAMETRE DE SORTIE: UC
//   98 //
//   99 // Auteur             : Vincent Chouinard
//  100 // Date               : 25 novembre 2014   (Version 1.0)
//  101 // Modification       :
//  102 // *****************************************************************************

        RSEG NEAR_CODE:CODE:NOROOT(0)
//  103 UC CLFestoCaptors :: readInductiveCaptor (void)
??readInductiveCaptor:
        CFI Block cfiBlock8 Using cfiCommon0
        CFI Function ??readInductiveCaptor
        CODE
//  104 {
        ; Saved register size: 0
        ; Auto size: 0
//  105 return(0);   
        MOV     R1,#0x0
        RET
        CFI EndBlock cfiBlock8
//  106 }
//  107 
//  108 // **********************FONCTION: readHeightCaptor()
//  109 //
//  110 // DESCRIPTION        : Lit le capteur de hauteur du bloc
//  111 //
//  112 // INCLUDE            : "_DeclarationGenerale.h" "CLFestoCaptors.h"
//  113 //                      
//  114 // PROTOTYPE          : UC readHeightCaptor(void)
//  115 //
//  116 // PROCEDURE D'APPEL  : data = readHeightCaptor()
//  117 //
//  118 // PARAMETRE D'ENTREE : AUCUN
//  119 //
//  120 // PARAMETRE DE SORTIE: UC
//  121 //
//  122 // Auteur             : Vincent Chouinard
//  123 // Date               : 25 novembre 2014   (Version 1.0)
//  124 // Modification       :
//  125 // *****************************************************************************

        RSEG NEAR_CODE:CODE:NOROOT(0)
//  126 UC CLFestoCaptors :: readHeightCaptor (void)
??readHeightCaptor:
        CFI Block cfiBlock9 Using cfiCommon0
        CFI Function ??readHeightCaptor
        CODE
//  127 {
        ; Saved register size: 0
        ; Auto size: 0
//  128 return(0);
        MOV     R1,#0x0
        RET
        CFI EndBlock cfiBlock9
//  129 }
//  130 
//  131 // **********************FONCTION: readPreVentouseCaptor()
//  132 //
//  133 // DESCRIPTION        : Lit le dernier capteur avant que la ventouse ne prenne le bloc
//  134 //
//  135 // INCLUDE            : "_DeclarationGenerale.h" "CLFestoCaptors.h"
//  136 //                      
//  137 // PROTOTYPE          : UC readPreVentouseCaptor(void)
//  138 //
//  139 // PROCEDURE D'APPEL  : data = readPreVentouseCaptor()
//  140 //
//  141 // PARAMETRE D'ENTREE : AUCUN
//  142 //
//  143 // PARAMETRE DE SORTIE: UC
//  144 //
//  145 // Auteur             : Vincent Chouinard
//  146 // Date               : 25 novembre 2014   (Version 1.0)
//  147 // Modification       :
//  148 // *****************************************************************************

        RSEG NEAR_CODE:CODE:NOROOT(0)
//  149 UC CLFestoCaptors :: readPreVentouseCaptor(void)
??readPreVentouseCaptor:
        CFI Block cfiBlock10 Using cfiCommon0
        CFI Function ??readPreVentouseCaptor
        CODE
//  150 {
        ; Saved register size: 0
        ; Auto size: 0
//  151 return(0);  
        MOV     R1,#0x0
        RET
        CFI EndBlock cfiBlock10
//  152 }

        END
//  153 //LinuxLinuxLinuxLinuxLinuxLinuxLinuxLinuxLinuxLinuxLinuxLinuxLinuxLinuxLinuxTUX
// 
// 257 bytes in segment NEAR_CODE
// 
// 257 bytes of CODE memory
//
//Errors: none
//Warnings: none
