///////////////////////////////////////////////////////////////////////////////
//                                                                            /
// IAR C/C++ Compiler V8.10.1.40194/W32 for 8051        28/Nov/2014  08:11:50 /
// Copyright 2004-2011 IAR Systems AB.                                        /
//                                                                            /
//    Core               =  plain                                             /
//    Code model         =  near                                              /
//    Data model         =  large                                             /
//    Calling convention =  xdata reentrant                                   /
//    Constant location  =  data                                              /
//    Dptr setup         =  1,16                                              /
//    Source file        =  C:\Synchro\Dropbox\Travaux\Automne                /
//                          2014\ProjetSession5\ProgrammeDuFESTO\ProgrammeFES /
//                          TO\FESTO.cpp                                      /
//    Command line       =  "C:\Synchro\Dropbox\Travaux\Automne               /
//                          2014\ProjetSession5\ProgrammeDuFESTO\ProgrammeFES /
//                          TO\FESTO.cpp" -D UPSD3254A --preprocess=cl        /
//                          "C:\Synchro\Dropbox\Travaux\Automne               /
//                          2014\ProjetSession5\ProgrammeDuFESTO\ProgrammeFES /
//                          TO\UPSD\List\" -lC "C:\Synchro\Dropbox\Travaux\Au /
//                          tomne 2014\ProjetSession5\ProgrammeDuFESTO\Progra /
//                          mmeFESTO\UPSD\List\" -lA                          /
//                          "C:\Synchro\Dropbox\Travaux\Automne               /
//                          2014\ProjetSession5\ProgrammeDuFESTO\ProgrammeFES /
//                          TO\UPSD\List\" -o "C:\Synchro\Dropbox\Travaux\Aut /
//                          omne 2014\ProjetSession5\ProgrammeDuFESTO\Program /
//                          meFESTO\UPSD\Obj\" -e --no_cse --no_unroll        /
//                          --no_inline --no_code_motion --no_tbaa --debug    /
//                          --core=plain --dptr=16,1 --data_model=large       /
//                          --code_model=near --calling_convention=xdata_reen /
//                          trant --place_constants=data --nr_virtual_regs 8  /
//                          --dlib_config "C:\Program Files (x86)\IAR         /
//                          Systems\Embedded Workbench                        /
//                          6.0\8051\LIB\DLIB\dl8051Normal.h" -Ol --eec++     /
//    List file          =  C:\Synchro\Dropbox\Travaux\Automne                /
//                          2014\ProjetSession5\ProgrammeDuFESTO\ProgrammeFES /
//                          TO\UPSD\List\FESTO.s51                            /
//                                                                            /
//                                                                            /
///////////////////////////////////////////////////////////////////////////////

        NAME FESTO

        RTMODEL "__SystemLibrary", "DLib"
        RTMODEL "__calling_convention", "xdata_reentrant"
        RTMODEL "__code_model", "near"
        RTMODEL "__core", "plain"
        RTMODEL "__data_model", "large"
        RTMODEL "__dptr_size", "16"
        RTMODEL "__extended_stack", "disabled"
        RTMODEL "__location_for_constants", "data"
        RTMODEL "__number_of_dptrs", "1"
        RTMODEL "__rt_version", "1"

        RSEG DOVERLAY:DATA:NOROOT(0)
        RSEG IOVERLAY:IDATA:NOROOT(0)
        RSEG ISTACK:IDATA:NOROOT(0)
        RSEG PSTACK:XDATA:NOROOT(0)
        RSEG XSTACK:XDATA:NOROOT(0)

        ERROR
//NOTE: This module defines or uses C++ features that are not
//      accessible from assembler code. Assembling this file will
//      not produce an equivalent object file to the one produced
//      by the C++ compiler.

        EXTERN ?FUNC_ENTER_XDATA
        EXTERN ?FUNC_LEAVE_XDATA
        EXTERN ?L_ADD_X
        EXTERN ?L_MOV_X
        EXTERN ?UL_GT
        EXTERN ?V0
        EXTERN ?XSTACK_DISP0_8
        EXTERN __INIT_XDATA_I

        PUBLIC ??CLFesto
        FUNCTION ??CLFesto,021203H
        ARGFRAME XSTACK, 0, STACK
        ARGFRAME IOVERLAY, 0, STATIC
        ARGFRAME DOVERLAY, 0, STATIC
        LOCFRAME XSTACK, 8, STACK
        PUBLIC ??CLFesto_1
        FUNCTION ??CLFesto_1,021203H
        ARGFRAME XSTACK, 9, STACK
        ARGFRAME IOVERLAY, 0, STATIC
        ARGFRAME DOVERLAY, 0, STATIC
        LOCFRAME XSTACK, 8, STACK
        PUBLIC ??Delai
        FUNCTION ??Delai,0203H
        ARGFRAME XSTACK, 4, STACK
        LOCFRAME XSTACK, 15, STACK
        PUBLIC ??GetBlocColor
        FUNCTION ??GetBlocColor,021203H
        ARGFRAME XSTACK, 8, STACK
        ARGFRAME IOVERLAY, 0, STATIC
        ARGFRAME DOVERLAY, 0, STATIC
        LOCFRAME XSTACK, 11, STACK
        PUBLIC ??IsTheBlocInTheBolid
        FUNCTION ??IsTheBlocInTheBolid,0203H
        ARGFRAME XSTACK, 8, STACK
        ARGFRAME IOVERLAY, 0, STATIC
        ARGFRAME DOVERLAY, 0, STATIC
        PUBLIC ??IsTheBolideHere
        FUNCTION ??IsTheBolideHere,021203H
        ARGFRAME XSTACK, 8, STACK
        ARGFRAME IOVERLAY, 0, STATIC
        ARGFRAME DOVERLAY, 0, STATIC
        LOCFRAME ISTACK, 2, STACK
        PUBLIC ??ReadInstructionFromPC
        FUNCTION ??ReadInstructionFromPC,0203H
        ARGFRAME XSTACK, 0, STACK
        PUBLIC ??SendToBolide
        FUNCTION ??SendToBolide,021203H
        ARGFRAME XSTACK, 8, STACK
        ARGFRAME IOVERLAY, 0, STATIC
        ARGFRAME DOVERLAY, 0, STATIC
        LOCFRAME XSTACK, 8, STACK
        PUBLIC ??SendToStation1
        FUNCTION ??SendToStation1,021203H
        ARGFRAME XSTACK, 8, STACK
        ARGFRAME IOVERLAY, 0, STATIC
        ARGFRAME DOVERLAY, 0, STATIC
        LOCFRAME XSTACK, 8, STACK
        PUBLIC `??delete ~CLFesto`
        FUNCTION `??delete ~CLFesto`,021203H
        ARGFRAME XSTACK, 0, STACK
        LOCFRAME XSTACK, 8, STACK
        PUBLIC `??new CLFesto`
        FUNCTION `??new CLFesto`,021203H
        ARGFRAME XSTACK, 0, STACK
        LOCFRAME ISTACK, 2, STACK
        PUBLIC `??new CLFesto_1`
        FUNCTION `??new CLFesto_1`,021203H
        ARGFRAME XSTACK, 0, STACK
        LOCFRAME XSTACK, 9, STACK
        PUBLIC ??ucGestionFESTO
        FUNCTION ??ucGestionFESTO,021203H
        ARGFRAME XSTACK, 0, STACK
        LOCFRAME XSTACK, 8, STACK
        PUBLIC `?~CLFesto`
        FUNCTION `?~CLFesto`,021203H
        ARGFRAME XSTACK, 8, STACK
        ARGFRAME IOVERLAY, 0, STATIC
        ARGFRAME DOVERLAY, 0, STATIC
        LOCFRAME XSTACK, 8, STACK
        PUBWEAK __Constant_0
        PUBWEAK __Constant_1
        
        CFI Names cfiNames0
        CFI StackFrame CFA_SP SP IDATA
        CFI StackFrame CFA_PSP16 PSP16 XDATA
        CFI StackFrame CFA_XSP16 XSP16 XDATA
        CFI StaticOverlayFrame CFA_IOVERLAY IOVERLAY
        CFI StaticOverlayFrame CFA_DOVERLAY DOVERLAY
        CFI Resource `PSW.CY`:1, `B.BR0`:1, `B.BR1`:1, `B.BR2`:1, `B.BR3`:1
        CFI Resource `B.BR4`:1, `B.BR5`:1, `B.BR6`:1, `B.BR7`:1, `VB.BR8`:1
        CFI Resource `VB.BR9`:1, `VB.BR10`:1, `VB.BR11`:1, `VB.BR12`:1
        CFI Resource `VB.BR13`:1, `VB.BR14`:1, `VB.BR15`:1, VB:8, B:8, A:8
        CFI Resource PSW:8, DPL0:8, DPH0:8, R0:8, R1:8, R2:8, R3:8, R4:8, R5:8
        CFI Resource R6:8, R7:8, V0:8, V1:8, V2:8, V3:8, V4:8, V5:8, V6:8, V7:8
        CFI Resource SP:8, PSPH:8, PSPL:8, PSP16:16, XSPH:8, XSPL:8, XSP16:16
        CFI VirtualResource ?RET:16, ?RET_HIGH:8, ?RET_LOW:8
        CFI ResourceParts PSP16 PSPH, PSPL
        CFI ResourceParts XSP16 XSPH, XSPL
        CFI ResourceParts ?RET ?RET_HIGH, ?RET_LOW
        CFI EndNames cfiNames0
        
        CFI Common cfiCommon0 Using cfiNames0
        CFI CodeAlign 1
        CFI DataAlign -1
        CFI ReturnAddress ?RET CODE
        CFI CFA_DOVERLAY Used
        CFI CFA_IOVERLAY Used
        CFI CFA_SP SP+-2
        CFI CFA_PSP16 PSP16+0
        CFI CFA_XSP16 XSP16+0
        CFI `PSW.CY` SameValue
        CFI `B.BR0` SameValue
        CFI `B.BR1` SameValue
        CFI `B.BR2` SameValue
        CFI `B.BR3` SameValue
        CFI `B.BR4` SameValue
        CFI `B.BR5` SameValue
        CFI `B.BR6` SameValue
        CFI `B.BR7` SameValue
        CFI `VB.BR8` SameValue
        CFI `VB.BR9` SameValue
        CFI `VB.BR10` SameValue
        CFI `VB.BR11` SameValue
        CFI `VB.BR12` SameValue
        CFI `VB.BR13` SameValue
        CFI `VB.BR14` SameValue
        CFI `VB.BR15` SameValue
        CFI VB SameValue
        CFI B Undefined
        CFI A Undefined
        CFI PSW SameValue
        CFI DPL0 SameValue
        CFI DPH0 SameValue
        CFI R0 Undefined
        CFI R1 Undefined
        CFI R2 Undefined
        CFI R3 Undefined
        CFI R4 Undefined
        CFI R5 Undefined
        CFI R6 SameValue
        CFI R7 SameValue
        CFI V0 SameValue
        CFI V1 SameValue
        CFI V2 SameValue
        CFI V3 SameValue
        CFI V4 SameValue
        CFI V5 SameValue
        CFI V6 SameValue
        CFI V7 SameValue
        CFI PSPH Undefined
        CFI PSPL Undefined
        CFI XSPH Undefined
        CFI XSPL Undefined
        CFI ?RET Concat
        CFI ?RET_HIGH Frame(CFA_SP, 2)
        CFI ?RET_LOW Frame(CFA_SP, 1)
        CFI EndCommon cfiCommon0
        
        EXTERN `??operator new`
        FUNCTION `??operator new`,010202H
        ARGFRAME ISTACK, 2, STACK
        ARGFRAME PSTACK, 0, STACK
        ARGFRAME XSTACK, 9, STACK
        ARGFRAME IOVERLAY, 0, STATIC
        ARGFRAME DOVERLAY, 0, STATIC
        EXTERN `??operator delete`
        FUNCTION `??operator delete`,010202H
        ARGFRAME ISTACK, 0, STACK
        ARGFRAME PSTACK, 0, STACK
        ARGFRAME XSTACK, 8, STACK
        ARGFRAME IOVERLAY, 0, STATIC
        ARGFRAME DOVERLAY, 0, STATIC
        EXTERN ??CLCommunic
        FUNCTION ??CLCommunic,0202H
        ARGFRAME ISTACK, 0, STACK
        ARGFRAME PSTACK, 0, STACK
        ARGFRAME XSTACK, 8, STACK
        ARGFRAME IOVERLAY, 0, STATIC
        ARGFRAME DOVERLAY, 0, STATIC
        EXTERN ??CLEcran
        FUNCTION ??CLEcran,0202H
        ARGFRAME ISTACK, 0, STACK
        ARGFRAME PSTACK, 0, STACK
        ARGFRAME XSTACK, 8, STACK
        ARGFRAME IOVERLAY, 0, STATIC
        ARGFRAME DOVERLAY, 0, STATIC
        EXTERN ??CLPompe
        FUNCTION ??CLPompe,0202H
        ARGFRAME ISTACK, 0, STACK
        ARGFRAME PSTACK, 0, STACK
        ARGFRAME XSTACK, 8, STACK
        ARGFRAME IOVERLAY, 0, STATIC
        ARGFRAME DOVERLAY, 0, STATIC
        EXTERN ??CLFestoCaptors
        FUNCTION ??CLFestoCaptors,0202H
        ARGFRAME ISTACK, 0, STACK
        ARGFRAME PSTACK, 0, STACK
        ARGFRAME XSTACK, 8, STACK
        ARGFRAME IOVERLAY, 0, STATIC
        ARGFRAME DOVERLAY, 0, STATIC
        EXTERN `?~CLFestoCaptors`
        FUNCTION `?~CLFestoCaptors`,0202H
        ARGFRAME ISTACK, 0, STACK
        ARGFRAME PSTACK, 0, STACK
        ARGFRAME XSTACK, 8, STACK
        ARGFRAME IOVERLAY, 0, STATIC
        ARGFRAME DOVERLAY, 0, STATIC
        EXTERN `?~CLPompe`
        FUNCTION `?~CLPompe`,0202H
        ARGFRAME ISTACK, 0, STACK
        ARGFRAME PSTACK, 0, STACK
        ARGFRAME XSTACK, 8, STACK
        ARGFRAME IOVERLAY, 0, STATIC
        ARGFRAME DOVERLAY, 0, STATIC
        EXTERN `?~CLEcran`
        FUNCTION `?~CLEcran`,0202H
        ARGFRAME ISTACK, 0, STACK
        ARGFRAME PSTACK, 0, STACK
        ARGFRAME XSTACK, 8, STACK
        ARGFRAME IOVERLAY, 0, STATIC
        ARGFRAME DOVERLAY, 0, STATIC
        EXTERN `?~CLCommunic`
        FUNCTION `?~CLCommunic`,0202H
        ARGFRAME ISTACK, 0, STACK
        ARGFRAME PSTACK, 0, STACK
        ARGFRAME XSTACK, 8, STACK
        ARGFRAME IOVERLAY, 0, STATIC
        ARGFRAME DOVERLAY, 0, STATIC
        EXTERN ??Send
        FUNCTION ??Send,0202H
        ARGFRAME ISTACK, 0, STACK
        ARGFRAME PSTACK, 0, STACK
        ARGFRAME XSTACK, 8, STACK
        ARGFRAME IOVERLAY, 0, STATIC
        ARGFRAME DOVERLAY, 0, STATIC
        EXTERN ??SendString
        FUNCTION ??SendString,0202H
        ARGFRAME ISTACK, 0, STACK
        ARGFRAME PSTACK, 0, STACK
        ARGFRAME XSTACK, 8, STACK
        ARGFRAME IOVERLAY, 0, STATIC
        ARGFRAME DOVERLAY, 0, STATIC
        EXTERN ??vLCDCursor
        FUNCTION ??vLCDCursor,0202H
        ARGFRAME ISTACK, 0, STACK
        ARGFRAME PSTACK, 0, STACK
        ARGFRAME XSTACK, 11, STACK
        ARGFRAME IOVERLAY, 0, STATIC
        ARGFRAME DOVERLAY, 0, STATIC
        EXTERN ??ReadCapacitiveCaptor
        FUNCTION ??ReadCapacitiveCaptor,0202H
        ARGFRAME ISTACK, 0, STACK
        ARGFRAME PSTACK, 0, STACK
        ARGFRAME XSTACK, 11, STACK
        ARGFRAME IOVERLAY, 0, STATIC
        ARGFRAME DOVERLAY, 0, STATIC
        EXTERN ??ReadInductiveCaptor
        FUNCTION ??ReadInductiveCaptor,0202H
        ARGFRAME ISTACK, 0, STACK
        ARGFRAME PSTACK, 0, STACK
        ARGFRAME XSTACK, 11, STACK
        ARGFRAME IOVERLAY, 0, STATIC
        ARGFRAME DOVERLAY, 0, STATIC
        EXTERN ??ReadOpticCaptor
        FUNCTION ??ReadOpticCaptor,0202H
        ARGFRAME ISTACK, 0, STACK
        ARGFRAME PSTACK, 0, STACK
        ARGFRAME XSTACK, 11, STACK
        ARGFRAME IOVERLAY, 0, STATIC
        ARGFRAME DOVERLAY, 0, STATIC
        EXTERN ??String
        FUNCTION ??String,0202H
        ARGFRAME ISTACK, 2, STACK
        ARGFRAME PSTACK, 0, STACK
        ARGFRAME XSTACK, 11, STACK
        ARGFRAME IOVERLAY, 0, STATIC
        ARGFRAME DOVERLAY, 0, STATIC
        EXTERN ??SOL725
        FUNCTION ??SOL725,0202H
        ARGFRAME ISTACK, 0, STACK
        ARGFRAME PSTACK, 0, STACK
        ARGFRAME XSTACK, 8, STACK
        ARGFRAME IOVERLAY, 0, STATIC
        ARGFRAME DOVERLAY, 0, STATIC
        EXTERN ??SOL713
        FUNCTION ??SOL713,0202H
        ARGFRAME ISTACK, 0, STACK
        ARGFRAME PSTACK, 0, STACK
        ARGFRAME XSTACK, 8, STACK
        ARGFRAME IOVERLAY, 0, STATIC
        ARGFRAME DOVERLAY, 0, STATIC
        EXTERN ??ReadHeightCaptor
        FUNCTION ??ReadHeightCaptor,0202H
        ARGFRAME ISTACK, 0, STACK
        ARGFRAME PSTACK, 0, STACK
        ARGFRAME XSTACK, 8, STACK
        ARGFRAME IOVERLAY, 0, STATIC
        ARGFRAME DOVERLAY, 0, STATIC
        EXTERN ??SOL722
        FUNCTION ??SOL722,0202H
        ARGFRAME ISTACK, 0, STACK
        ARGFRAME PSTACK, 0, STACK
        ARGFRAME XSTACK, 8, STACK
        ARGFRAME IOVERLAY, 0, STATIC
        ARGFRAME DOVERLAY, 0, STATIC
        EXTERN ??ReadPreVentouseCaptor
        FUNCTION ??ReadPreVentouseCaptor,0202H
        ARGFRAME ISTACK, 0, STACK
        ARGFRAME PSTACK, 0, STACK
        ARGFRAME XSTACK, 8, STACK
        ARGFRAME IOVERLAY, 0, STATIC
        ARGFRAME DOVERLAY, 0, STATIC
        EXTERN ??SOL716
        FUNCTION ??SOL716,0202H
        ARGFRAME ISTACK, 0, STACK
        ARGFRAME PSTACK, 0, STACK
        ARGFRAME XSTACK, 8, STACK
        ARGFRAME IOVERLAY, 0, STATIC
        ARGFRAME DOVERLAY, 0, STATIC
        EXTERN ??SOL719
        FUNCTION ??SOL719,0202H
        ARGFRAME ISTACK, 0, STACK
        ARGFRAME PSTACK, 0, STACK
        ARGFRAME XSTACK, 8, STACK
        ARGFRAME IOVERLAY, 0, STATIC
        ARGFRAME DOVERLAY, 0, STATIC


        RSEG NEAR_CODE:CODE:NOROOT(0)
// __near_func __xdata_reentrant CLFesto &CLFesto::new CLFesto()
`??new CLFesto`:
        CFI Block cfiBlock0 Using cfiCommon0
        CFI Function `??new CLFesto`
        CODE
        FUNCALL `??new CLFesto`, `??operator new`
        LOCFRAME ISTACK, 2, STACK
        LOCFRAME PSTACK, 0, STACK
        LOCFRAME XSTACK, 0, STACK
        LOCFRAME IOVERLAY, 0, STATIC
        LOCFRAME DOVERLAY, 0, STATIC
        ARGFRAME ISTACK, 2, STACK
        ARGFRAME PSTACK, 0, STACK
        ARGFRAME XSTACK, 0, STACK
        ARGFRAME IOVERLAY, 0, STATIC
        ARGFRAME DOVERLAY, 0, STATIC
        FUNCALL `??new CLFesto`, ??CLFesto
        LOCFRAME ISTACK, 2, STACK
        LOCFRAME PSTACK, 0, STACK
        LOCFRAME XSTACK, 0, STACK
        LOCFRAME IOVERLAY, 0, STATIC
        LOCFRAME DOVERLAY, 0, STATIC
        ARGFRAME ISTACK, 2, STACK
        ARGFRAME PSTACK, 0, STACK
        ARGFRAME XSTACK, 0, STACK
        ARGFRAME IOVERLAY, 0, STATIC
        ARGFRAME DOVERLAY, 0, STATIC
        PUSH    ?V0 + 0
        CFI V0 Frame(CFA_SP, 3)
        CFI CFA_SP SP+-3
        PUSH    ?V0 + 1
        CFI V1 Frame(CFA_SP, 4)
        CFI CFA_SP SP+-4
        ; Saved register size: 2
        ; Auto size: 0
        ; Setup parameters for call to function operator new(unsigned int)
        MOV     R2,#0x13
        MOV     R3,#0x0
        LCALL   `??operator new`
        MOV     ?V0 + 0,R2
        MOV     ?V0 + 1,R3
        MOV     R0,?V0 + 0
        MOV     R1,?V0 + 1
        MOV     A,R0
        MOV     R2,A
        MOV     A,R1
        MOV     R3,A
        MOV     A,R0
        ORL     A,R1
        JZ      `??new CLFesto_2`
        ; Setup parameters for call to function CLFesto::CLFesto()
        LCALL   ??CLFesto
        MOV     ?V0 + 0,R2
        MOV     ?V0 + 1,R3
        MOV     R2,?V0 + 0
        MOV     R3,?V0 + 1
        SJMP    `??new CLFesto_3`
`??new CLFesto_2`:
        MOV     R2,#0x0
        MOV     R3,#0x0
`??new CLFesto_3`:
        POP     ?V0 + 1
        CFI V1 SameValue
        CFI CFA_SP SP+-3
        POP     ?V0 + 0
        CFI V0 SameValue
        CFI CFA_SP SP+-2
        RET
        CFI EndBlock cfiBlock0

        RSEG NEAR_CODE:CODE:NOROOT(0)
// __near_func __xdata_reentrant CLFesto &CLFesto::new CLFesto(UC)
`??new CLFesto_1`:
        CFI Block cfiBlock1 Using cfiCommon0
        CFI Function `??new CLFesto_1`
        CODE
        FUNCALL `??new CLFesto_1`, `??operator new`
        LOCFRAME ISTACK, 0, STACK
        LOCFRAME PSTACK, 0, STACK
        LOCFRAME XSTACK, 9, STACK
        LOCFRAME IOVERLAY, 0, STATIC
        LOCFRAME DOVERLAY, 0, STATIC
        ARGFRAME ISTACK, 0, STACK
        ARGFRAME PSTACK, 0, STACK
        ARGFRAME XSTACK, 9, STACK
        ARGFRAME IOVERLAY, 0, STATIC
        ARGFRAME DOVERLAY, 0, STATIC
        FUNCALL `??new CLFesto_1`, ??CLFesto_1
        LOCFRAME ISTACK, 0, STACK
        LOCFRAME PSTACK, 0, STACK
        LOCFRAME XSTACK, 9, STACK
        LOCFRAME IOVERLAY, 0, STATIC
        LOCFRAME DOVERLAY, 0, STATIC
        ARGFRAME ISTACK, 0, STACK
        ARGFRAME PSTACK, 0, STACK
        ARGFRAME XSTACK, 9, STACK
        ARGFRAME IOVERLAY, 0, STATIC
        ARGFRAME DOVERLAY, 0, STATIC
        MOV     A,#-0x9
        LCALL   ?FUNC_ENTER_XDATA
        CFI DPH0 load(1, XDATA, add(CFA_XSP16, literal(-1)))
        CFI DPL0 load(1, XDATA, add(CFA_XSP16, literal(-2)))
        CFI ?RET_HIGH load(1, XDATA, add(CFA_XSP16, literal(-3)))
        CFI ?RET_LOW load(1, XDATA, add(CFA_XSP16, literal(-4)))
        CFI R7 load(1, XDATA, add(CFA_XSP16, literal(-5)))
        CFI V1 load(1, XDATA, add(CFA_XSP16, literal(-6)))
        CFI V0 load(1, XDATA, add(CFA_XSP16, literal(-7)))
        CFI VB load(1, XDATA, add(CFA_XSP16, literal(-8)))
        CFI R6 load(1, XDATA, add(CFA_XSP16, literal(-9)))
        CFI CFA_SP SP+0
        CFI CFA_XSP16 add(XSP16, 9)
        ; Saved register size: 9
        ; Auto size: 0
        MOV     A,R1
        MOV     R6,A
        ; Setup parameters for call to function operator new(unsigned int)
        MOV     R2,#0x13
        MOV     R3,#0x0
        LCALL   `??operator new`
        MOV     ?V0 + 0,R2
        MOV     ?V0 + 1,R3
        MOV     R0,?V0 + 0
        MOV     R1,?V0 + 1
        MOV     A,R0
        MOV     R2,A
        MOV     A,R1
        MOV     R3,A
        MOV     A,R0
        ORL     A,R1
        JZ      `??new CLFesto_4`
        ; Setup parameters for call to function CLFesto::CLFesto(UC)
        MOV     A,R6
        MOV     R1,A
        LCALL   ??CLFesto_1
        MOV     ?V0 + 0,R2
        MOV     ?V0 + 1,R3
        MOV     R2,?V0 + 0
        MOV     R3,?V0 + 1
        SJMP    `??new CLFesto_5`
`??new CLFesto_4`:
        MOV     R2,#0x0
        MOV     R3,#0x0
`??new CLFesto_5`:
        MOV     R7,#0x2
        LJMP    ?FUNC_LEAVE_XDATA
        CFI EndBlock cfiBlock1

        RSEG NEAR_CODE:CODE:NOROOT(0)
// __near_func __xdata_reentrant void CLFesto::delete ~CLFesto(CLFesto *)
`??delete ~CLFesto`:
        CFI Block cfiBlock2 Using cfiCommon0
        CFI Function `??delete ~CLFesto`
        CODE
        FUNCALL `??delete ~CLFesto`, `?~CLFesto`
        LOCFRAME ISTACK, 0, STACK
        LOCFRAME PSTACK, 0, STACK
        LOCFRAME XSTACK, 8, STACK
        LOCFRAME IOVERLAY, 0, STATIC
        LOCFRAME DOVERLAY, 0, STATIC
        ARGFRAME ISTACK, 0, STACK
        ARGFRAME PSTACK, 0, STACK
        ARGFRAME XSTACK, 8, STACK
        ARGFRAME IOVERLAY, 0, STATIC
        ARGFRAME DOVERLAY, 0, STATIC
        FUNCALL `??delete ~CLFesto`, `??operator delete`
        LOCFRAME ISTACK, 0, STACK
        LOCFRAME PSTACK, 0, STACK
        LOCFRAME XSTACK, 8, STACK
        LOCFRAME IOVERLAY, 0, STATIC
        LOCFRAME DOVERLAY, 0, STATIC
        ARGFRAME ISTACK, 0, STACK
        ARGFRAME PSTACK, 0, STACK
        ARGFRAME XSTACK, 8, STACK
        ARGFRAME IOVERLAY, 0, STATIC
        ARGFRAME DOVERLAY, 0, STATIC
        MOV     A,#-0x8
        LCALL   ?FUNC_ENTER_XDATA
        CFI DPH0 load(1, XDATA, add(CFA_XSP16, literal(-1)))
        CFI DPL0 load(1, XDATA, add(CFA_XSP16, literal(-2)))
        CFI ?RET_HIGH load(1, XDATA, add(CFA_XSP16, literal(-3)))
        CFI ?RET_LOW load(1, XDATA, add(CFA_XSP16, literal(-4)))
        CFI R7 load(1, XDATA, add(CFA_XSP16, literal(-5)))
        CFI V0 load(1, XDATA, add(CFA_XSP16, literal(-6)))
        CFI VB load(1, XDATA, add(CFA_XSP16, literal(-7)))
        CFI R6 load(1, XDATA, add(CFA_XSP16, literal(-8)))
        CFI CFA_SP SP+0
        CFI CFA_XSP16 add(XSP16, 8)
        ; Saved register size: 8
        ; Auto size: 0
        MOV     A,R2
        MOV     R6,A
        MOV     A,R3
        MOV     R7,A
        MOV     A,R6
        ORL     A,R7
        JZ      `??delete ~CLFesto_1`
        ; Setup parameters for call to function CLFesto::~CLFesto()
        MOV     A,R6
        MOV     R2,A
        MOV     A,R7
        MOV     R3,A
        LCALL   `?~CLFesto`
        ; Setup parameters for call to function operator delete(void *)
        MOV     A,R6
        MOV     R2,A
        MOV     A,R7
        MOV     R3,A
        LCALL   `??operator delete`
`??delete ~CLFesto_1`:
        MOV     R7,#0x1
        LJMP    ?FUNC_LEAVE_XDATA
        CFI EndBlock cfiBlock2
// C:\Synchro\Dropbox\Travaux\Automne 2014\ProjetSession5\ProgrammeDuFESTO\ProgrammeFESTO\FESTO.cpp
//    1 // **************************FESTO.cpp
//    2 // Auteur:       Vincent Chouinard
//    3 // Date:         27 novembre 2014
//    4 // Version:      1.0
//    5 // Modification: Aucune
//    6 //
//    7 // Compilateur:  IAR 8.10
//    8 //
//    9 // Description:
//   10 // *****************************************************************************
//   11 #include "_DeclarationGenerale.h"  // Raccourcis de programmation & variables
//   12 #include "FESTO.h"                 // Fichier de definitions du gestionnaire de table festo
//   13 
//   14 //******************************************************************************
//   15 //                            LE CONSTRUCTEUR PAR DEFAUT
//   16 // *****************************************************************************

        RSEG NEAR_CODE:CODE:NOROOT(0)
//   17 CLFesto :: CLFesto(void)
??CLFesto:
        CFI Block cfiBlock3 Using cfiCommon0
        CFI Function ??CLFesto
        CODE
        FUNCALL ??CLFesto, ??CLCommunic
        LOCFRAME ISTACK, 0, STACK
        LOCFRAME PSTACK, 0, STACK
        LOCFRAME XSTACK, 8, STACK
        LOCFRAME IOVERLAY, 0, STATIC
        LOCFRAME DOVERLAY, 0, STATIC
        ARGFRAME ISTACK, 0, STACK
        ARGFRAME PSTACK, 0, STACK
        ARGFRAME XSTACK, 8, STACK
        ARGFRAME IOVERLAY, 0, STATIC
        ARGFRAME DOVERLAY, 0, STATIC
        FUNCALL ??CLFesto, ??CLEcran
        LOCFRAME ISTACK, 0, STACK
        LOCFRAME PSTACK, 0, STACK
        LOCFRAME XSTACK, 8, STACK
        LOCFRAME IOVERLAY, 0, STATIC
        LOCFRAME DOVERLAY, 0, STATIC
        ARGFRAME ISTACK, 0, STACK
        ARGFRAME PSTACK, 0, STACK
        ARGFRAME XSTACK, 8, STACK
        ARGFRAME IOVERLAY, 0, STATIC
        ARGFRAME DOVERLAY, 0, STATIC
        FUNCALL ??CLFesto, ??CLPompe
        LOCFRAME ISTACK, 0, STACK
        LOCFRAME PSTACK, 0, STACK
        LOCFRAME XSTACK, 8, STACK
        LOCFRAME IOVERLAY, 0, STATIC
        LOCFRAME DOVERLAY, 0, STATIC
        ARGFRAME ISTACK, 0, STACK
        ARGFRAME PSTACK, 0, STACK
        ARGFRAME XSTACK, 8, STACK
        ARGFRAME IOVERLAY, 0, STATIC
        ARGFRAME DOVERLAY, 0, STATIC
        FUNCALL ??CLFesto, ??CLFestoCaptors
        LOCFRAME ISTACK, 0, STACK
        LOCFRAME PSTACK, 0, STACK
        LOCFRAME XSTACK, 8, STACK
        LOCFRAME IOVERLAY, 0, STATIC
        LOCFRAME DOVERLAY, 0, STATIC
        ARGFRAME ISTACK, 0, STACK
        ARGFRAME PSTACK, 0, STACK
        ARGFRAME XSTACK, 8, STACK
        ARGFRAME IOVERLAY, 0, STATIC
        ARGFRAME DOVERLAY, 0, STATIC
        MOV     A,#-0x8
        LCALL   ?FUNC_ENTER_XDATA
        CFI DPH0 load(1, XDATA, add(CFA_XSP16, literal(-1)))
        CFI DPL0 load(1, XDATA, add(CFA_XSP16, literal(-2)))
        CFI ?RET_HIGH load(1, XDATA, add(CFA_XSP16, literal(-3)))
        CFI ?RET_LOW load(1, XDATA, add(CFA_XSP16, literal(-4)))
        CFI R7 load(1, XDATA, add(CFA_XSP16, literal(-5)))
        CFI V0 load(1, XDATA, add(CFA_XSP16, literal(-6)))
        CFI VB load(1, XDATA, add(CFA_XSP16, literal(-7)))
        CFI R6 load(1, XDATA, add(CFA_XSP16, literal(-8)))
        CFI CFA_SP SP+0
        CFI CFA_XSP16 add(XSP16, 8)
        ; Saved register size: 8
        ; Auto size: 0
        MOV     A,R2
        MOV     R6,A
        MOV     A,R3
        MOV     R7,A
//   18 {
        ; Setup parameters for call to function CLCommunic::CLCommunic()
        MOV     A,R6
        MOV     R2,A
        MOV     A,R7
        MOV     R3,A
        LCALL   ??CLCommunic
        ; Setup parameters for call to function CLEcran::CLEcran()
        MOV     DPL,R6
        MOV     DPH,R7
        INC     DPTR
        MOV     R2,DPL
        MOV     R3,DPH
        LCALL   ??CLEcran
        ; Setup parameters for call to function CLPompe::CLPompe()
        MOV     A,R6
        ADD     A,#0x3
        MOV     R2,A
        MOV     A,R7
        ADDC    A,#0x0
        MOV     R3,A
        LCALL   ??CLPompe
        ; Setup parameters for call to function CLFestoCaptors::CLFestoCaptors()
        MOV     A,R6
        ADD     A,#0xb
        MOV     R2,A
        MOV     A,R7
        ADDC    A,#0x0
        MOV     R3,A
        LCALL   ??CLFestoCaptors
//   19 
//   20 }
        MOV     A,R6
        MOV     R2,A
        MOV     A,R7
        MOV     R3,A
        MOV     R7,#0x1
        LJMP    ?FUNC_LEAVE_XDATA
        CFI EndBlock cfiBlock3
//   21 
//   22 //******************************************************************************
//   23 //                            LE CONSTRUCTEUR INITIALISATEUR
//   24 // *****************************************************************************

        RSEG NEAR_CODE:CODE:NOROOT(0)
//   25 CLFesto :: CLFesto(UC ucParametre)
??CLFesto_1:
        CFI Block cfiBlock4 Using cfiCommon0
        CFI Function ??CLFesto_1
        CODE
        FUNCALL ??CLFesto_1, ??CLCommunic
        LOCFRAME ISTACK, 0, STACK
        LOCFRAME PSTACK, 0, STACK
        LOCFRAME XSTACK, 8, STACK
        LOCFRAME IOVERLAY, 0, STATIC
        LOCFRAME DOVERLAY, 0, STATIC
        ARGFRAME ISTACK, 0, STACK
        ARGFRAME PSTACK, 0, STACK
        ARGFRAME XSTACK, 8, STACK
        ARGFRAME IOVERLAY, 0, STATIC
        ARGFRAME DOVERLAY, 0, STATIC
        FUNCALL ??CLFesto_1, ??CLEcran
        LOCFRAME ISTACK, 0, STACK
        LOCFRAME PSTACK, 0, STACK
        LOCFRAME XSTACK, 8, STACK
        LOCFRAME IOVERLAY, 0, STATIC
        LOCFRAME DOVERLAY, 0, STATIC
        ARGFRAME ISTACK, 0, STACK
        ARGFRAME PSTACK, 0, STACK
        ARGFRAME XSTACK, 8, STACK
        ARGFRAME IOVERLAY, 0, STATIC
        ARGFRAME DOVERLAY, 0, STATIC
        FUNCALL ??CLFesto_1, ??CLPompe
        LOCFRAME ISTACK, 0, STACK
        LOCFRAME PSTACK, 0, STACK
        LOCFRAME XSTACK, 8, STACK
        LOCFRAME IOVERLAY, 0, STATIC
        LOCFRAME DOVERLAY, 0, STATIC
        ARGFRAME ISTACK, 0, STACK
        ARGFRAME PSTACK, 0, STACK
        ARGFRAME XSTACK, 8, STACK
        ARGFRAME IOVERLAY, 0, STATIC
        ARGFRAME DOVERLAY, 0, STATIC
        FUNCALL ??CLFesto_1, ??CLFestoCaptors
        LOCFRAME ISTACK, 0, STACK
        LOCFRAME PSTACK, 0, STACK
        LOCFRAME XSTACK, 8, STACK
        LOCFRAME IOVERLAY, 0, STATIC
        LOCFRAME DOVERLAY, 0, STATIC
        ARGFRAME ISTACK, 0, STACK
        ARGFRAME PSTACK, 0, STACK
        ARGFRAME XSTACK, 8, STACK
        ARGFRAME IOVERLAY, 0, STATIC
        ARGFRAME DOVERLAY, 0, STATIC
        MOV     A,#-0x8
        LCALL   ?FUNC_ENTER_XDATA
        CFI DPH0 load(1, XDATA, add(CFA_XSP16, literal(-1)))
        CFI DPL0 load(1, XDATA, add(CFA_XSP16, literal(-2)))
        CFI ?RET_HIGH load(1, XDATA, add(CFA_XSP16, literal(-3)))
        CFI ?RET_LOW load(1, XDATA, add(CFA_XSP16, literal(-4)))
        CFI R7 load(1, XDATA, add(CFA_XSP16, literal(-5)))
        CFI V0 load(1, XDATA, add(CFA_XSP16, literal(-6)))
        CFI VB load(1, XDATA, add(CFA_XSP16, literal(-7)))
        CFI R6 load(1, XDATA, add(CFA_XSP16, literal(-8)))
        CFI CFA_SP SP+0
        CFI CFA_XSP16 add(XSP16, 8)
        ; Saved register size: 8
        ; Auto size: 0
        MOV     A,R2
        MOV     R6,A
        MOV     A,R3
        MOV     R7,A
//   26 {
        ; Setup parameters for call to function CLCommunic::CLCommunic()
        MOV     A,R6
        MOV     R2,A
        MOV     A,R7
        MOV     R3,A
        LCALL   ??CLCommunic
        ; Setup parameters for call to function CLEcran::CLEcran()
        MOV     DPL,R6
        MOV     DPH,R7
        INC     DPTR
        MOV     R2,DPL
        MOV     R3,DPH
        LCALL   ??CLEcran
        ; Setup parameters for call to function CLPompe::CLPompe()
        MOV     A,R6
        ADD     A,#0x3
        MOV     R2,A
        MOV     A,R7
        ADDC    A,#0x0
        MOV     R3,A
        LCALL   ??CLPompe
        ; Setup parameters for call to function CLFestoCaptors::CLFestoCaptors()
        MOV     A,R6
        ADD     A,#0xb
        MOV     R2,A
        MOV     A,R7
        ADDC    A,#0x0
        MOV     R3,A
        LCALL   ??CLFestoCaptors
//   27 
//   28 }
        MOV     A,R6
        MOV     R2,A
        MOV     A,R7
        MOV     R3,A
        MOV     R7,#0x1
        LJMP    ?FUNC_LEAVE_XDATA
        CFI EndBlock cfiBlock4
//   29 
//   30 // *****************************************************************************
//   31 //                            LE DESTRUCTEUR
//   32 // *****************************************************************************

        RSEG NEAR_CODE:CODE:NOROOT(0)
//   33 CLFesto :: ~CLFesto(void)
`?~CLFesto`:
        CFI Block cfiBlock5 Using cfiCommon0
        CFI Function `?~CLFesto`
        CODE
//   34 {
        FUNCALL `?~CLFesto`, `?~CLFestoCaptors`
        LOCFRAME ISTACK, 0, STACK
        LOCFRAME PSTACK, 0, STACK
        LOCFRAME XSTACK, 8, STACK
        LOCFRAME IOVERLAY, 0, STATIC
        LOCFRAME DOVERLAY, 0, STATIC
        ARGFRAME ISTACK, 0, STACK
        ARGFRAME PSTACK, 0, STACK
        ARGFRAME XSTACK, 8, STACK
        ARGFRAME IOVERLAY, 0, STATIC
        ARGFRAME DOVERLAY, 0, STATIC
        FUNCALL `?~CLFesto`, `?~CLPompe`
        LOCFRAME ISTACK, 0, STACK
        LOCFRAME PSTACK, 0, STACK
        LOCFRAME XSTACK, 8, STACK
        LOCFRAME IOVERLAY, 0, STATIC
        LOCFRAME DOVERLAY, 0, STATIC
        ARGFRAME ISTACK, 0, STACK
        ARGFRAME PSTACK, 0, STACK
        ARGFRAME XSTACK, 8, STACK
        ARGFRAME IOVERLAY, 0, STATIC
        ARGFRAME DOVERLAY, 0, STATIC
        FUNCALL `?~CLFesto`, `?~CLEcran`
        LOCFRAME ISTACK, 0, STACK
        LOCFRAME PSTACK, 0, STACK
        LOCFRAME XSTACK, 8, STACK
        LOCFRAME IOVERLAY, 0, STATIC
        LOCFRAME DOVERLAY, 0, STATIC
        ARGFRAME ISTACK, 0, STACK
        ARGFRAME PSTACK, 0, STACK
        ARGFRAME XSTACK, 8, STACK
        ARGFRAME IOVERLAY, 0, STATIC
        ARGFRAME DOVERLAY, 0, STATIC
        FUNCALL `?~CLFesto`, `?~CLCommunic`
        LOCFRAME ISTACK, 0, STACK
        LOCFRAME PSTACK, 0, STACK
        LOCFRAME XSTACK, 8, STACK
        LOCFRAME IOVERLAY, 0, STATIC
        LOCFRAME DOVERLAY, 0, STATIC
        ARGFRAME ISTACK, 0, STACK
        ARGFRAME PSTACK, 0, STACK
        ARGFRAME XSTACK, 8, STACK
        ARGFRAME IOVERLAY, 0, STATIC
        ARGFRAME DOVERLAY, 0, STATIC
        MOV     A,#-0x8
        LCALL   ?FUNC_ENTER_XDATA
        CFI DPH0 load(1, XDATA, add(CFA_XSP16, literal(-1)))
        CFI DPL0 load(1, XDATA, add(CFA_XSP16, literal(-2)))
        CFI ?RET_HIGH load(1, XDATA, add(CFA_XSP16, literal(-3)))
        CFI ?RET_LOW load(1, XDATA, add(CFA_XSP16, literal(-4)))
        CFI R7 load(1, XDATA, add(CFA_XSP16, literal(-5)))
        CFI V0 load(1, XDATA, add(CFA_XSP16, literal(-6)))
        CFI VB load(1, XDATA, add(CFA_XSP16, literal(-7)))
        CFI R6 load(1, XDATA, add(CFA_XSP16, literal(-8)))
        CFI CFA_SP SP+0
        CFI CFA_XSP16 add(XSP16, 8)
        ; Saved register size: 8
        ; Auto size: 0
        MOV     A,R2
        MOV     R6,A
        MOV     A,R3
        MOV     R7,A
//   35 
//   36 }
        ; Setup parameters for call to function CLFestoCaptors::~CLFestoCaptors()
        MOV     A,R6
        ADD     A,#0xb
        MOV     R2,A
        MOV     A,R7
        ADDC    A,#0x0
        MOV     R3,A
        LCALL   `?~CLFestoCaptors`
        ; Setup parameters for call to function CLPompe::~CLPompe()
        MOV     A,R6
        ADD     A,#0x3
        MOV     R2,A
        MOV     A,R7
        ADDC    A,#0x0
        MOV     R3,A
        LCALL   `?~CLPompe`
        ; Setup parameters for call to function CLEcran::~CLEcran()
        MOV     DPL,R6
        MOV     DPH,R7
        INC     DPTR
        MOV     R2,DPL
        MOV     R3,DPH
        LCALL   `?~CLEcran`
        ; Setup parameters for call to function CLCommunic::~CLCommunic()
        MOV     A,R6
        MOV     R2,A
        MOV     A,R7
        MOV     R3,A
        LCALL   `?~CLCommunic`
        MOV     R7,#0x1
        LJMP    ?FUNC_LEAVE_XDATA
        CFI EndBlock cfiBlock5
//   37 
//   38 // **********************FONCTION: ReadInstructionFromPC()
//   39 //
//   40 // DESCRIPTION        : Lit des instructions CAN provenant du PC
//   41 //
//   42 // INCLUDE            : "_DeclarationGenerale.h" "FESTO.h"
//   43 //                      
//   44 // PROTOTYPE          : UC ReadInstructionFromPC(void)
//   45 //
//   46 // PROCEDURE D'APPEL  : data = ReadInstructionFromPC()
//   47 //
//   48 // PARAMETRE D'ENTREE : AUCUN
//   49 //
//   50 // PARAMETRE DE SORTIE: La trame CAN du PC
//   51 //
//   52 // Auteur             : Vincent Chouinard
//   53 // Date               : 25 novembre 2014   (Version 1.0)
//   54 // Modification       :
//   55 // *****************************************************************************

        RSEG NEAR_CODE:CODE:NOROOT(0)
//   56 UC CLFesto :: ReadInstructionFromPC(void) 
??ReadInstructionFromPC:
        CFI Block cfiBlock6 Using cfiCommon0
        CFI Function ??ReadInstructionFromPC
        CODE
//   57 {
        ; Saved register size: 0
        ; Auto size: 0
//   58   // Note: la station 1 lit le bus CAN et envoie par Xbee les infos appropriées à la table FESTO
//   59 return(NULL); // Il faut donc lire le Xbee!
        MOV     R1,#0x0
        RET
        CFI EndBlock cfiBlock6
//   60 }
//   61 
//   62 // **********************FONCTION: SendToBolide()
//   63 //
//   64 // DESCRIPTION        : Envoie une donnée au bolide via Xbee
//   65 //
//   66 // INCLUDE            : "_DeclarationGenerale.h" "FESTO.h"
//   67 //                      
//   68 // PROTOTYPE          : void SendToBolide(char const)
//   69 //
//   70 // PROCEDURE D'APPEL  : SendToBolide("string")
//   71 //
//   72 // PARAMETRE D'ENTREE : char const
//   73 //
//   74 // PARAMETRE DE SORTIE: AUCUN
//   75 //
//   76 // Auteur             : Vincent Chouinard
//   77 // Date               : 25 novembre 2014   (Version 1.0)
//   78 // Modification       :
//   79 // *****************************************************************************

        RSEG NEAR_CODE:CODE:NOROOT(0)
//   80 void CLFesto :: SendToBolide(char const *ucpMessage)
??SendToBolide:
        CFI Block cfiBlock7 Using cfiCommon0
        CFI Function ??SendToBolide
        CODE
//   81 {
        FUNCALL ??SendToBolide, ??Send
        LOCFRAME ISTACK, 0, STACK
        LOCFRAME PSTACK, 0, STACK
        LOCFRAME XSTACK, 8, STACK
        LOCFRAME IOVERLAY, 0, STATIC
        LOCFRAME DOVERLAY, 0, STATIC
        ARGFRAME ISTACK, 0, STACK
        ARGFRAME PSTACK, 0, STACK
        ARGFRAME XSTACK, 8, STACK
        ARGFRAME IOVERLAY, 0, STATIC
        ARGFRAME DOVERLAY, 0, STATIC
        FUNCALL ??SendToBolide, ??SendString
        LOCFRAME ISTACK, 0, STACK
        LOCFRAME PSTACK, 0, STACK
        LOCFRAME XSTACK, 8, STACK
        LOCFRAME IOVERLAY, 0, STATIC
        LOCFRAME DOVERLAY, 0, STATIC
        ARGFRAME ISTACK, 0, STACK
        ARGFRAME PSTACK, 0, STACK
        ARGFRAME XSTACK, 8, STACK
        ARGFRAME IOVERLAY, 0, STATIC
        ARGFRAME DOVERLAY, 0, STATIC
        MOV     A,#-0x8
        LCALL   ?FUNC_ENTER_XDATA
        CFI DPH0 load(1, XDATA, add(CFA_XSP16, literal(-1)))
        CFI DPL0 load(1, XDATA, add(CFA_XSP16, literal(-2)))
        CFI ?RET_HIGH load(1, XDATA, add(CFA_XSP16, literal(-3)))
        CFI ?RET_LOW load(1, XDATA, add(CFA_XSP16, literal(-4)))
        CFI R7 load(1, XDATA, add(CFA_XSP16, literal(-5)))
        CFI V0 load(1, XDATA, add(CFA_XSP16, literal(-6)))
        CFI VB load(1, XDATA, add(CFA_XSP16, literal(-7)))
        CFI R6 load(1, XDATA, add(CFA_XSP16, literal(-8)))
        CFI CFA_SP SP+0
        CFI CFA_XSP16 add(XSP16, 8)
        ; Saved register size: 8
        ; Auto size: 0
        MOV     DPL,R2
        MOV     DPH,R3
        MOV     A,R4
        MOV     R6,A
        MOV     A,R5
        MOV     R7,A
//   82 Xbee.Send('B');               // Envoie au bolide  
        ; Setup parameters for call to function CLCommunic::Send(UC)
        MOV     R1,#0x42
        MOV     R2,DPL
        MOV     R3,DPH
        LCALL   ??Send
//   83 Xbee.SendString(ucpMessage);  // La commande passée en paramètres
        ; Setup parameters for call to function CLCommunic::SendString(char const *)
        MOV     A,R6
        MOV     R4,A
        MOV     A,R7
        MOV     R5,A
        MOV     R2,DPL
        MOV     R3,DPH
        LCALL   ??SendString
//   84 }
        MOV     R7,#0x1
        LJMP    ?FUNC_LEAVE_XDATA
        CFI EndBlock cfiBlock7
//   85 
//   86 // **********************FONCTION: SendToStation1()
//   87 //
//   88 // DESCRIPTION        : Envoie une donnée à la station 1 via Xbee
//   89 //
//   90 // INCLUDE            : "_DeclarationGenerale.h" "FESTO.h"
//   91 //                      
//   92 // PROTOTYPE          : void SendToStation1(char const)
//   93 //
//   94 // PROCEDURE D'APPEL  : SendToStation1("string")
//   95 //
//   96 // PARAMETRE D'ENTREE : char const
//   97 //
//   98 // PARAMETRE DE SORTIE: AUCUN
//   99 //
//  100 // Auteur             : Vincent Chouinard
//  101 // Date               : 25 novembre 2014   (Version 1.0)
//  102 // Modification       :
//  103 // *****************************************************************************

        RSEG NEAR_CODE:CODE:NOROOT(0)
//  104 void CLFesto :: SendToStation1(char const *ucpMessage)
??SendToStation1:
        CFI Block cfiBlock8 Using cfiCommon0
        CFI Function ??SendToStation1
        CODE
//  105 {
        FUNCALL ??SendToStation1, ??Send
        LOCFRAME ISTACK, 0, STACK
        LOCFRAME PSTACK, 0, STACK
        LOCFRAME XSTACK, 8, STACK
        LOCFRAME IOVERLAY, 0, STATIC
        LOCFRAME DOVERLAY, 0, STATIC
        ARGFRAME ISTACK, 0, STACK
        ARGFRAME PSTACK, 0, STACK
        ARGFRAME XSTACK, 8, STACK
        ARGFRAME IOVERLAY, 0, STATIC
        ARGFRAME DOVERLAY, 0, STATIC
        FUNCALL ??SendToStation1, ??SendString
        LOCFRAME ISTACK, 0, STACK
        LOCFRAME PSTACK, 0, STACK
        LOCFRAME XSTACK, 8, STACK
        LOCFRAME IOVERLAY, 0, STATIC
        LOCFRAME DOVERLAY, 0, STATIC
        ARGFRAME ISTACK, 0, STACK
        ARGFRAME PSTACK, 0, STACK
        ARGFRAME XSTACK, 8, STACK
        ARGFRAME IOVERLAY, 0, STATIC
        ARGFRAME DOVERLAY, 0, STATIC
        MOV     A,#-0x8
        LCALL   ?FUNC_ENTER_XDATA
        CFI DPH0 load(1, XDATA, add(CFA_XSP16, literal(-1)))
        CFI DPL0 load(1, XDATA, add(CFA_XSP16, literal(-2)))
        CFI ?RET_HIGH load(1, XDATA, add(CFA_XSP16, literal(-3)))
        CFI ?RET_LOW load(1, XDATA, add(CFA_XSP16, literal(-4)))
        CFI R7 load(1, XDATA, add(CFA_XSP16, literal(-5)))
        CFI V0 load(1, XDATA, add(CFA_XSP16, literal(-6)))
        CFI VB load(1, XDATA, add(CFA_XSP16, literal(-7)))
        CFI R6 load(1, XDATA, add(CFA_XSP16, literal(-8)))
        CFI CFA_SP SP+0
        CFI CFA_XSP16 add(XSP16, 8)
        ; Saved register size: 8
        ; Auto size: 0
        MOV     DPL,R2
        MOV     DPH,R3
        MOV     A,R4
        MOV     R6,A
        MOV     A,R5
        MOV     R7,A
//  106 Xbee.Send('1');               // Envoie au bolide  
        ; Setup parameters for call to function CLCommunic::Send(UC)
        MOV     R1,#0x31
        MOV     R2,DPL
        MOV     R3,DPH
        LCALL   ??Send
//  107 Xbee.SendString(ucpMessage);  // La commande passée en paramètres
        ; Setup parameters for call to function CLCommunic::SendString(char const *)
        MOV     A,R6
        MOV     R4,A
        MOV     A,R7
        MOV     R5,A
        MOV     R2,DPL
        MOV     R3,DPH
        LCALL   ??SendString
//  108 }
        MOV     R7,#0x1
        LJMP    ?FUNC_LEAVE_XDATA
        CFI EndBlock cfiBlock8
//  109 
//  110 // **********************FONCTION: GetBlocColor()
//  111 //
//  112 // DESCRIPTION        : Lit la couleur du bloc et retourne la
//  113 //
//  114 // INCLUDE            : "_DeclarationGenerale.h" "FESTO.h"
//  115 //                      
//  116 // PROTOTYPE          : UC GetBlocColor(void)
//  117 //
//  118 // PROCEDURE D'APPEL  : data = GetBlocColor()
//  119 //
//  120 // PARAMETRE D'ENTREE : AUCUN
//  121 //
//  122 // PARAMETRE DE SORTIE: UC
//  123 //
//  124 // Auteur             : Vincent Chouinard
//  125 // Date               : 25 novembre 2014   (Version 1.0)
//  126 // Modification       :
//  127 // *****************************************************************************

        RSEG NEAR_CODE:CODE:NOROOT(0)
//  128 UC CLFesto :: GetBlocColor(void)
??GetBlocColor:
        CFI Block cfiBlock9 Using cfiCommon0
        CFI Function ??GetBlocColor
        CODE
//  129 {
        FUNCALL ??GetBlocColor, ??vLCDCursor
        LOCFRAME ISTACK, 0, STACK
        LOCFRAME PSTACK, 0, STACK
        LOCFRAME XSTACK, 11, STACK
        LOCFRAME IOVERLAY, 0, STATIC
        LOCFRAME DOVERLAY, 0, STATIC
        ARGFRAME ISTACK, 0, STACK
        ARGFRAME PSTACK, 0, STACK
        ARGFRAME XSTACK, 11, STACK
        ARGFRAME IOVERLAY, 0, STATIC
        ARGFRAME DOVERLAY, 0, STATIC
        FUNCALL ??GetBlocColor, ??ReadCapacitiveCaptor
        LOCFRAME ISTACK, 0, STACK
        LOCFRAME PSTACK, 0, STACK
        LOCFRAME XSTACK, 11, STACK
        LOCFRAME IOVERLAY, 0, STATIC
        LOCFRAME DOVERLAY, 0, STATIC
        ARGFRAME ISTACK, 0, STACK
        ARGFRAME PSTACK, 0, STACK
        ARGFRAME XSTACK, 11, STACK
        ARGFRAME IOVERLAY, 0, STATIC
        ARGFRAME DOVERLAY, 0, STATIC
        FUNCALL ??GetBlocColor, ??ReadInductiveCaptor
        LOCFRAME ISTACK, 0, STACK
        LOCFRAME PSTACK, 0, STACK
        LOCFRAME XSTACK, 11, STACK
        LOCFRAME IOVERLAY, 0, STATIC
        LOCFRAME DOVERLAY, 0, STATIC
        ARGFRAME ISTACK, 0, STACK
        ARGFRAME PSTACK, 0, STACK
        ARGFRAME XSTACK, 11, STACK
        ARGFRAME IOVERLAY, 0, STATIC
        ARGFRAME DOVERLAY, 0, STATIC
        FUNCALL ??GetBlocColor, ??ReadOpticCaptor
        LOCFRAME ISTACK, 0, STACK
        LOCFRAME PSTACK, 0, STACK
        LOCFRAME XSTACK, 11, STACK
        LOCFRAME IOVERLAY, 0, STATIC
        LOCFRAME DOVERLAY, 0, STATIC
        ARGFRAME ISTACK, 0, STACK
        ARGFRAME PSTACK, 0, STACK
        ARGFRAME XSTACK, 11, STACK
        ARGFRAME IOVERLAY, 0, STATIC
        ARGFRAME DOVERLAY, 0, STATIC
        FUNCALL ??GetBlocColor, ??String
        LOCFRAME ISTACK, 0, STACK
        LOCFRAME PSTACK, 0, STACK
        LOCFRAME XSTACK, 11, STACK
        LOCFRAME IOVERLAY, 0, STATIC
        LOCFRAME DOVERLAY, 0, STATIC
        ARGFRAME ISTACK, 0, STACK
        ARGFRAME PSTACK, 0, STACK
        ARGFRAME XSTACK, 11, STACK
        ARGFRAME IOVERLAY, 0, STATIC
        ARGFRAME DOVERLAY, 0, STATIC
        FUNCALL ??GetBlocColor, ??String
        LOCFRAME ISTACK, 0, STACK
        LOCFRAME PSTACK, 0, STACK
        LOCFRAME XSTACK, 11, STACK
        LOCFRAME IOVERLAY, 0, STATIC
        LOCFRAME DOVERLAY, 0, STATIC
        ARGFRAME ISTACK, 0, STACK
        ARGFRAME PSTACK, 0, STACK
        ARGFRAME XSTACK, 11, STACK
        ARGFRAME IOVERLAY, 0, STATIC
        ARGFRAME DOVERLAY, 0, STATIC
        FUNCALL ??GetBlocColor, ??String
        LOCFRAME ISTACK, 0, STACK
        LOCFRAME PSTACK, 0, STACK
        LOCFRAME XSTACK, 11, STACK
        LOCFRAME IOVERLAY, 0, STATIC
        LOCFRAME DOVERLAY, 0, STATIC
        ARGFRAME ISTACK, 0, STACK
        ARGFRAME PSTACK, 0, STACK
        ARGFRAME XSTACK, 11, STACK
        ARGFRAME IOVERLAY, 0, STATIC
        ARGFRAME DOVERLAY, 0, STATIC
        FUNCALL ??GetBlocColor, ??String
        LOCFRAME ISTACK, 0, STACK
        LOCFRAME PSTACK, 0, STACK
        LOCFRAME XSTACK, 11, STACK
        LOCFRAME IOVERLAY, 0, STATIC
        LOCFRAME DOVERLAY, 0, STATIC
        ARGFRAME ISTACK, 0, STACK
        ARGFRAME PSTACK, 0, STACK
        ARGFRAME XSTACK, 11, STACK
        ARGFRAME IOVERLAY, 0, STATIC
        ARGFRAME DOVERLAY, 0, STATIC
        MOV     A,#-0xb
        LCALL   ?FUNC_ENTER_XDATA
        CFI DPH0 load(1, XDATA, add(CFA_XSP16, literal(-1)))
        CFI DPL0 load(1, XDATA, add(CFA_XSP16, literal(-2)))
        CFI ?RET_HIGH load(1, XDATA, add(CFA_XSP16, literal(-3)))
        CFI ?RET_LOW load(1, XDATA, add(CFA_XSP16, literal(-4)))
        CFI R7 load(1, XDATA, add(CFA_XSP16, literal(-5)))
        CFI V3 load(1, XDATA, add(CFA_XSP16, literal(-6)))
        CFI V2 load(1, XDATA, add(CFA_XSP16, literal(-7)))
        CFI V1 load(1, XDATA, add(CFA_XSP16, literal(-8)))
        CFI V0 load(1, XDATA, add(CFA_XSP16, literal(-9)))
        CFI VB load(1, XDATA, add(CFA_XSP16, literal(-10)))
        CFI R6 load(1, XDATA, add(CFA_XSP16, literal(-11)))
        CFI CFA_SP SP+0
        CFI CFA_XSP16 add(XSP16, 11)
        ; Saved register size: 11
        ; Auto size: 0
        MOV     A,R2
        MOV     R6,A
        MOV     A,R3
        MOV     R7,A
//  130 UC ucColor      = 0;
        MOV     ?V0 + 0,#0x0
//  131 UC ucCapacitive = 0;
        MOV     ?V0 + 1,#0x0
//  132 UC ucMagnetic   = 0;
        MOV     ?V0 + 2,#0x0
//  133 UC ucOptique    = 0;
        MOV     ?V0 + 3,#0x0
//  134 
//  135 LCD.vLCDCursor(0,1);
        ; Setup parameters for call to function CLEcran::vLCDCursor(UC, UC)
        MOV     R4,#0x1
        MOV     R1,#0x0
        MOV     DPL,R6
        MOV     DPH,R7
        INC     DPTR
        MOV     R2,DPL
        MOV     R3,DPH
        LCALL   ??vLCDCursor
//  136 
//  137 ////////////Lecture des capteurs
//  138 ucCapacitive = Capteur.ReadCapacitiveCaptor();
        ; Setup parameters for call to function CLFestoCaptors::ReadCapacitiveCaptor()
        MOV     A,R6
        ADD     A,#0xb
        MOV     R2,A
        MOV     A,R7
        ADDC    A,#0x0
        MOV     R3,A
        LCALL   ??ReadCapacitiveCaptor
        MOV     A,R1
        MOV     ?V0 + 1,A
//  139 ucMagnetic   = Capteur.ReadInductiveCaptor ();
        ; Setup parameters for call to function CLFestoCaptors::ReadInductiveCaptor()
        MOV     A,R6
        ADD     A,#0xb
        MOV     R2,A
        MOV     A,R7
        ADDC    A,#0x0
        MOV     R3,A
        LCALL   ??ReadInductiveCaptor
        MOV     A,R1
        MOV     ?V0 + 2,A
//  140 ucOptique    = Capteur.ReadOpticCaptor     ();
        ; Setup parameters for call to function CLFestoCaptors::ReadOpticCaptor()
        MOV     A,R6
        ADD     A,#0xb
        MOV     R2,A
        MOV     A,R7
        ADDC    A,#0x0
        MOV     R3,A
        LCALL   ??ReadOpticCaptor
        MOV     A,R1
        MOV     ?V0 + 3,A
//  141 
//  142 ////////////Prise de décision
//  143 if(ucCapacitive == 1) // Si un bloc est présent
        MOV     A,#0x1
        XRL     A,?V0 + 1
        JNZ     ??GetBlocColor_1
//  144   {
//  145    if((ucMagnetic == 1) && (ucOptique == 1))
        MOV     A,#0x1
        XRL     A,?V0 + 2
        JNZ     ??GetBlocColor_2
        MOV     A,#0x1
        XRL     A,?V0 + 3
        JNZ     ??GetBlocColor_2
//  146      {
//  147       ucColor = METAL;  
        MOV     ?V0 + 0,#0x3
//  148      }
//  149 
//  150    if((ucMagnetic == 0) && (ucOptique == 1))
??GetBlocColor_2:
        MOV     A,?V0 + 2
        JNZ     ??GetBlocColor_3
        MOV     A,#0x1
        XRL     A,?V0 + 3
        JNZ     ??GetBlocColor_3
//  151      {
//  152       ucColor = ORANGE;  
        MOV     ?V0 + 0,#0x1
//  153      }
//  154 
//  155    if((ucMagnetic == 0) && (ucOptique == 0))
??GetBlocColor_3:
        MOV     A,?V0 + 2
        JNZ     ??GetBlocColor_4
        MOV     A,?V0 + 3
        JNZ     ??GetBlocColor_4
//  156      {
//  157       ucColor = NOIR;  
        MOV     ?V0 + 0,#0x2
        SJMP    ??GetBlocColor_4
//  158      }
//  159   }
//  160 else
//  161   {
//  162    ucColor = NOBLOC;
??GetBlocColor_1:
        MOV     ?V0 + 0,#0x4
//  163   }
//  164 
//  165 ////////////Écriture des résultats////////////
//  166 if(ucColor == ORANGE){LCD.String("Orange"  );}
??GetBlocColor_4:
        MOV     A,#0x1
        XRL     A,?V0 + 0
        JNZ     ??GetBlocColor_5
        ; Setup parameters for call to function CLEcran::String(char const *)
        MOV     R4,#`?<Constant "Orange">` & 0xff
        MOV     R5,#(`?<Constant "Orange">` >> 8) & 0xff
        MOV     DPL,R6
        MOV     DPH,R7
        INC     DPTR
        MOV     R2,DPL
        MOV     R3,DPH
        LCALL   ??String
//  167 if(ucColor == NOIR  ){LCD.String("Noir"    );}
??GetBlocColor_5:
        MOV     A,#0x2
        XRL     A,?V0 + 0
        JNZ     ??GetBlocColor_6
        ; Setup parameters for call to function CLEcran::String(char const *)
        MOV     R4,#`?<Constant "Noir">` & 0xff
        MOV     R5,#(`?<Constant "Noir">` >> 8) & 0xff
        MOV     DPL,R6
        MOV     DPH,R7
        INC     DPTR
        MOV     R2,DPL
        MOV     R3,DPH
        LCALL   ??String
//  168 if(ucColor == METAL ){LCD.String("Metallic");}
??GetBlocColor_6:
        MOV     A,#0x3
        XRL     A,?V0 + 0
        JNZ     ??GetBlocColor_7
        ; Setup parameters for call to function CLEcran::String(char const *)
        MOV     R4,#`?<Constant "Metallic">` & 0xff
        MOV     R5,#(`?<Constant "Metallic">` >> 8) & 0xff
        MOV     DPL,R6
        MOV     DPH,R7
        INC     DPTR
        MOV     R2,DPL
        MOV     R3,DPH
        LCALL   ??String
//  169 if(ucColor == NOBLOC){LCD.String("No bloc" );}
??GetBlocColor_7:
        MOV     A,#0x4
        XRL     A,?V0 + 0
        JNZ     ??GetBlocColor_8
        ; Setup parameters for call to function CLEcran::String(char const *)
        MOV     R4,#`?<Constant "No bloc">` & 0xff
        MOV     R5,#(`?<Constant "No bloc">` >> 8) & 0xff
        MOV     DPL,R6
        MOV     DPH,R7
        INC     DPTR
        MOV     R2,DPL
        MOV     R3,DPH
        LCALL   ??String
//  170 return(ucColor);
??GetBlocColor_8:
        MOV     R1,?V0 + 0
        MOV     R7,#0x4
        LJMP    ?FUNC_LEAVE_XDATA
        CFI EndBlock cfiBlock9
//  171 }
//  172 
//  173 // **********************FONCTION: IsTheBolideHere()
//  174 //
//  175 // DESCRIPTION        : Vérifie et indique la présence du bolide
//  176 //
//  177 // INCLUDE            : "_DeclarationGenerale.h" "FESTO.h"
//  178 //                      
//  179 // PROTOTYPE          : UC IsTheBolideHere(void)
//  180 //
//  181 // PROCEDURE D'APPEL  : data = IsTheBolideHere()
//  182 //
//  183 // PARAMETRE D'ENTREE : AUCUN
//  184 //
//  185 // PARAMETRE DE SORTIE: UC
//  186 //
//  187 // Auteur             : Vincent Chouinard
//  188 // Date               : 25 novembre 2014   (Version 1.0)
//  189 // Modification       :
//  190 // *****************************************************************************

        RSEG NEAR_CODE:CODE:NOROOT(0)
//  191 UC CLFesto :: IsTheBolideHere(void)
??IsTheBolideHere:
        CFI Block cfiBlock10 Using cfiCommon0
        CFI Function ??IsTheBolideHere
        CODE
//  192 {
        FUNCALL ??IsTheBolideHere, ??String
        LOCFRAME ISTACK, 2, STACK
        LOCFRAME PSTACK, 0, STACK
        LOCFRAME XSTACK, 0, STACK
        LOCFRAME IOVERLAY, 0, STATIC
        LOCFRAME DOVERLAY, 0, STATIC
        ARGFRAME ISTACK, 2, STACK
        ARGFRAME PSTACK, 0, STACK
        ARGFRAME XSTACK, 0, STACK
        ARGFRAME IOVERLAY, 0, STATIC
        ARGFRAME DOVERLAY, 0, STATIC
        PUSH    DPL
        CFI DPL0 Frame(CFA_SP, 3)
        CFI CFA_SP SP+-3
        PUSH    DPH
        CFI DPH0 Frame(CFA_SP, 4)
        CFI CFA_SP SP+-4
        ; Saved register size: 2
        ; Auto size: 0
//  193  LCD.String("Table FESTO");
        ; Setup parameters for call to function CLEcran::String(char const *)
        MOV     R4,#`?<Constant "Table FESTO">` & 0xff
        MOV     R5,#(`?<Constant "Table FESTO">` >> 8) & 0xff
        MOV     DPL,R2
        MOV     DPH,R3
        INC     DPTR
        MOV     R2,DPL
        MOV     R3,DPH
        LCALL   ??String
//  194  return(0);
        MOV     R1,#0x0
        POP     DPH
        CFI DPH0 SameValue
        CFI CFA_SP SP+-3
        POP     DPL
        CFI DPL0 SameValue
        CFI CFA_SP SP+-2
        RET
        CFI EndBlock cfiBlock10
//  195 }
//  196 
//  197 // **********************FONCTION: ucGestionFESTO()
//  198 //
//  199 // DESCRIPTION        : Gère toute la séquence de la table Festo
//  200 //
//  201 // INCLUDE            : "_DeclarationGenerale.h" "FESTO.h"
//  202 //                      
//  203 // PROTOTYPE          : UC readMagneticCaptor(void)
//  204 //
//  205 // PROCEDURE D'APPEL  : data = readMagneticCaptor()
//  206 //
//  207 // PARAMETRE D'ENTREE : AUCUN
//  208 //
//  209 // PARAMETRE DE SORTIE: UC
//  210 //
//  211 // Auteur             : Vincent Chouinard
//  212 // Date               : 25 novembre 2014   (Version 1.0)
//  213 // Modification       :
//  214 // *****************************************************************************

        RSEG NEAR_CODE:CODE:NOROOT(0)
//  215 void CLFesto :: ucGestionFESTO (void)
??ucGestionFESTO:
        CFI Block cfiBlock11 Using cfiCommon0
        CFI Function ??ucGestionFESTO
        CODE
//  216 {
        FUNCALL ??ucGestionFESTO, ??vLCDCursor
        LOCFRAME ISTACK, 0, STACK
        LOCFRAME PSTACK, 0, STACK
        LOCFRAME XSTACK, 8, STACK
        LOCFRAME IOVERLAY, 0, STATIC
        LOCFRAME DOVERLAY, 0, STATIC
        ARGFRAME ISTACK, 0, STACK
        ARGFRAME PSTACK, 0, STACK
        ARGFRAME XSTACK, 8, STACK
        ARGFRAME IOVERLAY, 0, STATIC
        ARGFRAME DOVERLAY, 0, STATIC
        FUNCALL ??ucGestionFESTO, ??IsTheBolideHere
        LOCFRAME ISTACK, 0, STACK
        LOCFRAME PSTACK, 0, STACK
        LOCFRAME XSTACK, 8, STACK
        LOCFRAME IOVERLAY, 0, STATIC
        LOCFRAME DOVERLAY, 0, STATIC
        ARGFRAME ISTACK, 0, STACK
        ARGFRAME PSTACK, 0, STACK
        ARGFRAME XSTACK, 8, STACK
        ARGFRAME IOVERLAY, 0, STATIC
        ARGFRAME DOVERLAY, 0, STATIC
        FUNCALL ??ucGestionFESTO, ??String
        LOCFRAME ISTACK, 0, STACK
        LOCFRAME PSTACK, 0, STACK
        LOCFRAME XSTACK, 8, STACK
        LOCFRAME IOVERLAY, 0, STATIC
        LOCFRAME DOVERLAY, 0, STATIC
        ARGFRAME ISTACK, 0, STACK
        ARGFRAME PSTACK, 0, STACK
        ARGFRAME XSTACK, 8, STACK
        ARGFRAME IOVERLAY, 0, STATIC
        ARGFRAME DOVERLAY, 0, STATIC
        FUNCALL ??ucGestionFESTO, ??IsTheBlocInTheBolid
        LOCFRAME ISTACK, 0, STACK
        LOCFRAME PSTACK, 0, STACK
        LOCFRAME XSTACK, 8, STACK
        LOCFRAME IOVERLAY, 0, STATIC
        LOCFRAME DOVERLAY, 0, STATIC
        ARGFRAME ISTACK, 0, STACK
        ARGFRAME PSTACK, 0, STACK
        ARGFRAME XSTACK, 8, STACK
        ARGFRAME IOVERLAY, 0, STATIC
        ARGFRAME DOVERLAY, 0, STATIC
        FUNCALL ??ucGestionFESTO, ??SendToBolide
        LOCFRAME ISTACK, 0, STACK
        LOCFRAME PSTACK, 0, STACK
        LOCFRAME XSTACK, 8, STACK
        LOCFRAME IOVERLAY, 0, STATIC
        LOCFRAME DOVERLAY, 0, STATIC
        ARGFRAME ISTACK, 0, STACK
        ARGFRAME PSTACK, 0, STACK
        ARGFRAME XSTACK, 8, STACK
        ARGFRAME IOVERLAY, 0, STATIC
        ARGFRAME DOVERLAY, 0, STATIC
        FUNCALL ??ucGestionFESTO, ??SendToStation1
        LOCFRAME ISTACK, 0, STACK
        LOCFRAME PSTACK, 0, STACK
        LOCFRAME XSTACK, 8, STACK
        LOCFRAME IOVERLAY, 0, STATIC
        LOCFRAME DOVERLAY, 0, STATIC
        ARGFRAME ISTACK, 0, STACK
        ARGFRAME PSTACK, 0, STACK
        ARGFRAME XSTACK, 8, STACK
        ARGFRAME IOVERLAY, 0, STATIC
        ARGFRAME DOVERLAY, 0, STATIC
        FUNCALL ??ucGestionFESTO, ??SendToBolide
        LOCFRAME ISTACK, 0, STACK
        LOCFRAME PSTACK, 0, STACK
        LOCFRAME XSTACK, 8, STACK
        LOCFRAME IOVERLAY, 0, STATIC
        LOCFRAME DOVERLAY, 0, STATIC
        ARGFRAME ISTACK, 0, STACK
        ARGFRAME PSTACK, 0, STACK
        ARGFRAME XSTACK, 8, STACK
        ARGFRAME IOVERLAY, 0, STATIC
        ARGFRAME DOVERLAY, 0, STATIC
        FUNCALL ??ucGestionFESTO, ??SendToStation1
        LOCFRAME ISTACK, 0, STACK
        LOCFRAME PSTACK, 0, STACK
        LOCFRAME XSTACK, 8, STACK
        LOCFRAME IOVERLAY, 0, STATIC
        LOCFRAME DOVERLAY, 0, STATIC
        ARGFRAME ISTACK, 0, STACK
        ARGFRAME PSTACK, 0, STACK
        ARGFRAME XSTACK, 8, STACK
        ARGFRAME IOVERLAY, 0, STATIC
        ARGFRAME DOVERLAY, 0, STATIC
        FUNCALL ??ucGestionFESTO, ??SendToBolide
        LOCFRAME ISTACK, 0, STACK
        LOCFRAME PSTACK, 0, STACK
        LOCFRAME XSTACK, 8, STACK
        LOCFRAME IOVERLAY, 0, STATIC
        LOCFRAME DOVERLAY, 0, STATIC
        ARGFRAME ISTACK, 0, STACK
        ARGFRAME PSTACK, 0, STACK
        ARGFRAME XSTACK, 8, STACK
        ARGFRAME IOVERLAY, 0, STATIC
        ARGFRAME DOVERLAY, 0, STATIC
        FUNCALL ??ucGestionFESTO, ??SendToStation1
        LOCFRAME ISTACK, 0, STACK
        LOCFRAME PSTACK, 0, STACK
        LOCFRAME XSTACK, 8, STACK
        LOCFRAME IOVERLAY, 0, STATIC
        LOCFRAME DOVERLAY, 0, STATIC
        ARGFRAME ISTACK, 0, STACK
        ARGFRAME PSTACK, 0, STACK
        ARGFRAME XSTACK, 8, STACK
        ARGFRAME IOVERLAY, 0, STATIC
        ARGFRAME DOVERLAY, 0, STATIC
        FUNCALL ??ucGestionFESTO, ??SendToBolide
        LOCFRAME ISTACK, 0, STACK
        LOCFRAME PSTACK, 0, STACK
        LOCFRAME XSTACK, 8, STACK
        LOCFRAME IOVERLAY, 0, STATIC
        LOCFRAME DOVERLAY, 0, STATIC
        ARGFRAME ISTACK, 0, STACK
        ARGFRAME PSTACK, 0, STACK
        ARGFRAME XSTACK, 8, STACK
        ARGFRAME IOVERLAY, 0, STATIC
        ARGFRAME DOVERLAY, 0, STATIC
        FUNCALL ??ucGestionFESTO, ??SendToStation1
        LOCFRAME ISTACK, 0, STACK
        LOCFRAME PSTACK, 0, STACK
        LOCFRAME XSTACK, 8, STACK
        LOCFRAME IOVERLAY, 0, STATIC
        LOCFRAME DOVERLAY, 0, STATIC
        ARGFRAME ISTACK, 0, STACK
        ARGFRAME PSTACK, 0, STACK
        ARGFRAME XSTACK, 8, STACK
        ARGFRAME IOVERLAY, 0, STATIC
        ARGFRAME DOVERLAY, 0, STATIC
        FUNCALL ??ucGestionFESTO, ??SOL725
        LOCFRAME ISTACK, 0, STACK
        LOCFRAME PSTACK, 0, STACK
        LOCFRAME XSTACK, 8, STACK
        LOCFRAME IOVERLAY, 0, STATIC
        LOCFRAME DOVERLAY, 0, STATIC
        ARGFRAME ISTACK, 0, STACK
        ARGFRAME PSTACK, 0, STACK
        ARGFRAME XSTACK, 8, STACK
        ARGFRAME IOVERLAY, 0, STATIC
        ARGFRAME DOVERLAY, 0, STATIC
        FUNCALL ??ucGestionFESTO, ??String
        LOCFRAME ISTACK, 0, STACK
        LOCFRAME PSTACK, 0, STACK
        LOCFRAME XSTACK, 8, STACK
        LOCFRAME IOVERLAY, 0, STATIC
        LOCFRAME DOVERLAY, 0, STATIC
        ARGFRAME ISTACK, 0, STACK
        ARGFRAME PSTACK, 0, STACK
        ARGFRAME XSTACK, 8, STACK
        ARGFRAME IOVERLAY, 0, STATIC
        ARGFRAME DOVERLAY, 0, STATIC
        FUNCALL ??ucGestionFESTO, ??ReadCapacitiveCaptor
        LOCFRAME ISTACK, 0, STACK
        LOCFRAME PSTACK, 0, STACK
        LOCFRAME XSTACK, 8, STACK
        LOCFRAME IOVERLAY, 0, STATIC
        LOCFRAME DOVERLAY, 0, STATIC
        ARGFRAME ISTACK, 0, STACK
        ARGFRAME PSTACK, 0, STACK
        ARGFRAME XSTACK, 8, STACK
        ARGFRAME IOVERLAY, 0, STATIC
        ARGFRAME DOVERLAY, 0, STATIC
        FUNCALL ??ucGestionFESTO, ??GetBlocColor
        LOCFRAME ISTACK, 0, STACK
        LOCFRAME PSTACK, 0, STACK
        LOCFRAME XSTACK, 8, STACK
        LOCFRAME IOVERLAY, 0, STATIC
        LOCFRAME DOVERLAY, 0, STATIC
        ARGFRAME ISTACK, 0, STACK
        ARGFRAME PSTACK, 0, STACK
        ARGFRAME XSTACK, 8, STACK
        ARGFRAME IOVERLAY, 0, STATIC
        ARGFRAME DOVERLAY, 0, STATIC
        FUNCALL ??ucGestionFESTO, ??SOL713
        LOCFRAME ISTACK, 0, STACK
        LOCFRAME PSTACK, 0, STACK
        LOCFRAME XSTACK, 8, STACK
        LOCFRAME IOVERLAY, 0, STATIC
        LOCFRAME DOVERLAY, 0, STATIC
        ARGFRAME ISTACK, 0, STACK
        ARGFRAME PSTACK, 0, STACK
        ARGFRAME XSTACK, 8, STACK
        ARGFRAME IOVERLAY, 0, STATIC
        ARGFRAME DOVERLAY, 0, STATIC
        FUNCALL ??ucGestionFESTO, ??String
        LOCFRAME ISTACK, 0, STACK
        LOCFRAME PSTACK, 0, STACK
        LOCFRAME XSTACK, 8, STACK
        LOCFRAME IOVERLAY, 0, STATIC
        LOCFRAME DOVERLAY, 0, STATIC
        ARGFRAME ISTACK, 0, STACK
        ARGFRAME PSTACK, 0, STACK
        ARGFRAME XSTACK, 8, STACK
        ARGFRAME IOVERLAY, 0, STATIC
        ARGFRAME DOVERLAY, 0, STATIC
        FUNCALL ??ucGestionFESTO, ??SOL713
        LOCFRAME ISTACK, 0, STACK
        LOCFRAME PSTACK, 0, STACK
        LOCFRAME XSTACK, 8, STACK
        LOCFRAME IOVERLAY, 0, STATIC
        LOCFRAME DOVERLAY, 0, STATIC
        ARGFRAME ISTACK, 0, STACK
        ARGFRAME PSTACK, 0, STACK
        ARGFRAME XSTACK, 8, STACK
        ARGFRAME IOVERLAY, 0, STATIC
        ARGFRAME DOVERLAY, 0, STATIC
        FUNCALL ??ucGestionFESTO, ??ReadHeightCaptor
        LOCFRAME ISTACK, 0, STACK
        LOCFRAME PSTACK, 0, STACK
        LOCFRAME XSTACK, 8, STACK
        LOCFRAME IOVERLAY, 0, STATIC
        LOCFRAME DOVERLAY, 0, STATIC
        ARGFRAME ISTACK, 0, STACK
        ARGFRAME PSTACK, 0, STACK
        ARGFRAME XSTACK, 8, STACK
        ARGFRAME IOVERLAY, 0, STATIC
        ARGFRAME DOVERLAY, 0, STATIC
        FUNCALL ??ucGestionFESTO, ??SOL722
        LOCFRAME ISTACK, 0, STACK
        LOCFRAME PSTACK, 0, STACK
        LOCFRAME XSTACK, 8, STACK
        LOCFRAME IOVERLAY, 0, STATIC
        LOCFRAME DOVERLAY, 0, STATIC
        ARGFRAME ISTACK, 0, STACK
        ARGFRAME PSTACK, 0, STACK
        ARGFRAME XSTACK, 8, STACK
        ARGFRAME IOVERLAY, 0, STATIC
        ARGFRAME DOVERLAY, 0, STATIC
        FUNCALL ??ucGestionFESTO, ??String
        LOCFRAME ISTACK, 0, STACK
        LOCFRAME PSTACK, 0, STACK
        LOCFRAME XSTACK, 8, STACK
        LOCFRAME IOVERLAY, 0, STATIC
        LOCFRAME DOVERLAY, 0, STATIC
        ARGFRAME ISTACK, 0, STACK
        ARGFRAME PSTACK, 0, STACK
        ARGFRAME XSTACK, 8, STACK
        ARGFRAME IOVERLAY, 0, STATIC
        ARGFRAME DOVERLAY, 0, STATIC
        FUNCALL ??ucGestionFESTO, ??SOL722
        LOCFRAME ISTACK, 0, STACK
        LOCFRAME PSTACK, 0, STACK
        LOCFRAME XSTACK, 8, STACK
        LOCFRAME IOVERLAY, 0, STATIC
        LOCFRAME DOVERLAY, 0, STATIC
        ARGFRAME ISTACK, 0, STACK
        ARGFRAME PSTACK, 0, STACK
        ARGFRAME XSTACK, 8, STACK
        ARGFRAME IOVERLAY, 0, STATIC
        ARGFRAME DOVERLAY, 0, STATIC
        FUNCALL ??ucGestionFESTO, ??ReadPreVentouseCaptor
        LOCFRAME ISTACK, 0, STACK
        LOCFRAME PSTACK, 0, STACK
        LOCFRAME XSTACK, 8, STACK
        LOCFRAME IOVERLAY, 0, STATIC
        LOCFRAME DOVERLAY, 0, STATIC
        ARGFRAME ISTACK, 0, STACK
        ARGFRAME PSTACK, 0, STACK
        ARGFRAME XSTACK, 8, STACK
        ARGFRAME IOVERLAY, 0, STATIC
        ARGFRAME DOVERLAY, 0, STATIC
        FUNCALL ??ucGestionFESTO, ??SOL716
        LOCFRAME ISTACK, 0, STACK
        LOCFRAME PSTACK, 0, STACK
        LOCFRAME XSTACK, 8, STACK
        LOCFRAME IOVERLAY, 0, STATIC
        LOCFRAME DOVERLAY, 0, STATIC
        ARGFRAME ISTACK, 0, STACK
        ARGFRAME PSTACK, 0, STACK
        ARGFRAME XSTACK, 8, STACK
        ARGFRAME IOVERLAY, 0, STATIC
        ARGFRAME DOVERLAY, 0, STATIC
        FUNCALL ??ucGestionFESTO, ??SOL719
        LOCFRAME ISTACK, 0, STACK
        LOCFRAME PSTACK, 0, STACK
        LOCFRAME XSTACK, 8, STACK
        LOCFRAME IOVERLAY, 0, STATIC
        LOCFRAME DOVERLAY, 0, STATIC
        ARGFRAME ISTACK, 0, STACK
        ARGFRAME PSTACK, 0, STACK
        ARGFRAME XSTACK, 8, STACK
        ARGFRAME IOVERLAY, 0, STATIC
        ARGFRAME DOVERLAY, 0, STATIC
        MOV     A,#-0x8
        LCALL   ?FUNC_ENTER_XDATA
        CFI DPH0 load(1, XDATA, add(CFA_XSP16, literal(-1)))
        CFI DPL0 load(1, XDATA, add(CFA_XSP16, literal(-2)))
        CFI ?RET_HIGH load(1, XDATA, add(CFA_XSP16, literal(-3)))
        CFI ?RET_LOW load(1, XDATA, add(CFA_XSP16, literal(-4)))
        CFI R7 load(1, XDATA, add(CFA_XSP16, literal(-5)))
        CFI V0 load(1, XDATA, add(CFA_XSP16, literal(-6)))
        CFI VB load(1, XDATA, add(CFA_XSP16, literal(-7)))
        CFI R6 load(1, XDATA, add(CFA_XSP16, literal(-8)))
        CFI CFA_SP SP+0
        CFI CFA_XSP16 add(XSP16, 8)
        ; Saved register size: 8
        ; Auto size: 0
        MOV     A,R2
        MOV     R6,A
        MOV     A,R3
        MOV     R7,A
//  217 UC ucCouleur;  
//  218 LCD.vLCDCursor(0, 2);  
        ; Setup parameters for call to function CLEcran::vLCDCursor(UC, UC)
        MOV     R4,#0x2
        MOV     R1,#0x0
        MOV     DPL,R6
        MOV     DPH,R7
        INC     DPTR
        MOV     R2,DPL
        MOV     R3,DPH
        LCALL   ??vLCDCursor
//  219 
//  220 if(IsTheBolideHere() == VRAI) // Si le bolide est à la table festo
        ; Setup parameters for call to function CLFesto::IsTheBolideHere()
        MOV     A,R6
        MOV     R2,A
        MOV     A,R7
        MOV     R3,A
        LCALL   ??IsTheBolideHere
        MOV     A,R1
        XRL     A,#0x1
        JNZ     $+5
        LJMP    ??ucGestionFESTO_1
//  221   {
//  222    while(Capteur.ReadCapacitiveCaptor() == 0) // Tant qu'il n'y a pas de bloc dans l'aire de chargement
//  223      {
//  224       Pompe.SOL725();                         // Active la pompe de chargement
//  225       LCD.String("SOL725 Active");
//  226      }
//  227    
//  228    ucCouleur = GetBlocColor();                // Lit la couleur du bloc
//  229    Pompe.SOL713();                            // Active la pompe qui fait monter la plateforme
//  230    LCD.String("SOL713 Active");   
//  231    
//  232    while(Capteur.ReadHeightCaptor() == 0)     // Tant que la platefore n'a pas fini de monter
//  233      {
//  234       Pompe.SOL713();                         // Active la pompe qui fait monter la plateforme
//  235      }
//  236    
//  237    Pompe.SOL722();                            // Active la pompe qui envoie sur le convoyeur
//  238    LCD.String("SOL722 Active");
//  239          
//  240    while(Capteur.ReadPreVentouseCaptor() == 0) // Tant que le bloc est encore sur le convoyeur
//  241      {
//  242       Pompe.SOL722();                          // Maintient active la pompe qui envoie sur le convoyeur
//  243      }
//  244    
//  245    Pompe.SOL716();                           // Rétracte la pompe d'envoie dans le convoyeur
//  246    Pompe.SOL719();                           // Abaisse la plateforme élévatrice
//  247   }
//  248 else // Si le bolide n'est pas à la table festo
//  249   {
//  250    LCD.String("No bolid"); // Affiche un message sur l'écran LCD  
        ; Setup parameters for call to function CLEcran::String(char const *)
        MOV     R4,#`?<Constant "No bolid">` & 0xff
        MOV     R5,#(`?<Constant "No bolid">` >> 8) & 0xff
        MOV     DPL,R6
        MOV     DPH,R7
        INC     DPTR
        MOV     R2,DPL
        MOV     R3,DPH
        LCALL   ??String
//  251   }
//  252 
//  253 if(IsTheBlocInTheBolid() == TRUE)        // Si le bloc est retombé dans le bolide
??ucGestionFESTO_2:
        ; Setup parameters for call to function CLFesto::IsTheBlocInTheBolid()
        MOV     A,R6
        MOV     R2,A
        MOV     A,R7
        MOV     R3,A
        LCALL   ??IsTheBlocInTheBolid
        MOV     A,R1
        XRL     A,#0x1
        JNZ     ??ucGestionFESTO_3
//  254   {
//  255    if(ucCouleur == ORANGE)               // Si le bloc est orange
        MOV     A,#0x1
        XRL     A,?V0 + 0
        JNZ     ??ucGestionFESTO_4
//  256     {
//  257      SendToBolide("CounterClockWise");   // Donne une instruction au Bolide
        ; Setup parameters for call to function CLFesto::SendToBolide(char const *)
        MOV     R4,#`?<Constant "CounterClockWise">` & 0xff
        MOV     R5,#(`?<Constant "CounterClockWise">` >> 8) & 0xff
        MOV     A,R6
        MOV     R2,A
        MOV     A,R7
        MOV     R3,A
        LCALL   ??SendToBolide
//  258      SendToStation1("CounterClockWise"); // Donne l'info au PC via la station 1
        ; Setup parameters for call to function CLFesto::SendToStation1(char const *)
        MOV     R4,#`?<Constant "CounterClockWise">` & 0xff
        MOV     R5,#(`?<Constant "CounterClockWise">` >> 8) & 0xff
        MOV     A,R6
        MOV     R2,A
        MOV     A,R7
        MOV     R3,A
        LCALL   ??SendToStation1
//  259     }
//  260 
//  261    if(ucCouleur == NOIR)                 // Si le bloc est noir
??ucGestionFESTO_4:
        MOV     A,#0x2
        XRL     A,?V0 + 0
        JNZ     ??ucGestionFESTO_5
//  262     {
//  263      SendToBolide("STOP");               // Donne une instruction au Bolide
        ; Setup parameters for call to function CLFesto::SendToBolide(char const *)
        MOV     R4,#`?<Constant "STOP">` & 0xff
        MOV     R5,#(`?<Constant "STOP">` >> 8) & 0xff
        MOV     A,R6
        MOV     R2,A
        MOV     A,R7
        MOV     R3,A
        LCALL   ??SendToBolide
//  264      SendToStation1("STOP");             // Donne l'info au PC via la station 1
        ; Setup parameters for call to function CLFesto::SendToStation1(char const *)
        MOV     R4,#`?<Constant "STOP">` & 0xff
        MOV     R5,#(`?<Constant "STOP">` >> 8) & 0xff
        MOV     A,R6
        MOV     R2,A
        MOV     A,R7
        MOV     R3,A
        LCALL   ??SendToStation1
//  265     }
//  266 
//  267    if(ucCouleur == METAL)                // Si le bloc est métallique
??ucGestionFESTO_5:
        MOV     A,#0x3
        XRL     A,?V0 + 0
        JNZ     ??ucGestionFESTO_6
//  268     {
//  269      SendToBolide("ClockWise");          // Donne une instruction au Bolide
        ; Setup parameters for call to function CLFesto::SendToBolide(char const *)
        MOV     R4,#`?<Constant "ClockWise">` & 0xff
        MOV     R5,#(`?<Constant "ClockWise">` >> 8) & 0xff
        MOV     A,R6
        MOV     R2,A
        MOV     A,R7
        MOV     R3,A
        LCALL   ??SendToBolide
//  270      SendToStation1("ClockWise");        // Donne l'info au PC via la station 1
        ; Setup parameters for call to function CLFesto::SendToStation1(char const *)
        MOV     R4,#`?<Constant "ClockWise">` & 0xff
        MOV     R5,#(`?<Constant "ClockWise">` >> 8) & 0xff
        MOV     A,R6
        MOV     R2,A
        MOV     A,R7
        MOV     R3,A
        LCALL   ??SendToStation1
//  271     }
//  272 
//  273    if(ucCouleur == NOBLOC)               // S'il n'y a pas de bloc
??ucGestionFESTO_6:
        MOV     A,#0x4
        XRL     A,?V0 + 0
        JNZ     ??ucGestionFESTO_3
//  274     {
//  275      SendToBolide("No bloc");            // Donne une instruction au Bolide
        ; Setup parameters for call to function CLFesto::SendToBolide(char const *)
        MOV     R4,#`?<Constant "No bloc">` & 0xff
        MOV     R5,#(`?<Constant "No bloc">` >> 8) & 0xff
        MOV     A,R6
        MOV     R2,A
        MOV     A,R7
        MOV     R3,A
        LCALL   ??SendToBolide
//  276      SendToStation1("No bloc");          // Donne l'info au PC via la station 1
        ; Setup parameters for call to function CLFesto::SendToStation1(char const *)
        MOV     R4,#`?<Constant "No bloc">` & 0xff
        MOV     R5,#(`?<Constant "No bloc">` >> 8) & 0xff
        MOV     A,R6
        MOV     R2,A
        MOV     A,R7
        MOV     R3,A
        LCALL   ??SendToStation1
//  277     } 
//  278   }
//  279 }
??ucGestionFESTO_3:
        MOV     R7,#0x1
        LJMP    ?FUNC_LEAVE_XDATA
??ucGestionFESTO_7:
        ; Setup parameters for call to function CLPompe::SOL725()
        MOV     A,R6
        ADD     A,#0x3
        MOV     R2,A
        MOV     A,R7
        ADDC    A,#0x0
        MOV     R3,A
        LCALL   ??SOL725
        ; Setup parameters for call to function CLEcran::String(char const *)
        MOV     R4,#`?<Constant "SOL725 Active">` & 0xff
        MOV     R5,#(`?<Constant "SOL725 Active">` >> 8) & 0xff
        MOV     DPL,R6
        MOV     DPH,R7
        INC     DPTR
        MOV     R2,DPL
        MOV     R3,DPH
        LCALL   ??String
??ucGestionFESTO_1:
        ; Setup parameters for call to function CLFestoCaptors::ReadCapacitiveCaptor()
        MOV     A,R6
        ADD     A,#0xb
        MOV     R2,A
        MOV     A,R7
        ADDC    A,#0x0
        MOV     R3,A
        LCALL   ??ReadCapacitiveCaptor
        MOV     A,R1
        JZ      ??ucGestionFESTO_7
        ; Setup parameters for call to function CLFesto::GetBlocColor()
        MOV     A,R6
        MOV     R2,A
        MOV     A,R7
        MOV     R3,A
        LCALL   ??GetBlocColor
        MOV     A,R1
        MOV     ?V0 + 0,A
        ; Setup parameters for call to function CLPompe::SOL713()
        MOV     A,R6
        ADD     A,#0x3
        MOV     R2,A
        MOV     A,R7
        ADDC    A,#0x0
        MOV     R3,A
        LCALL   ??SOL713
        ; Setup parameters for call to function CLEcran::String(char const *)
        MOV     R4,#`?<Constant "SOL713 Active">` & 0xff
        MOV     R5,#(`?<Constant "SOL713 Active">` >> 8) & 0xff
        MOV     DPL,R6
        MOV     DPH,R7
        INC     DPTR
        MOV     R2,DPL
        MOV     R3,DPH
        LCALL   ??String
        SJMP    ??ucGestionFESTO_8
??ucGestionFESTO_9:
        ; Setup parameters for call to function CLPompe::SOL713()
        MOV     A,R6
        ADD     A,#0x3
        MOV     R2,A
        MOV     A,R7
        ADDC    A,#0x0
        MOV     R3,A
        LCALL   ??SOL713
??ucGestionFESTO_8:
        ; Setup parameters for call to function CLFestoCaptors::ReadHeightCaptor()
        MOV     A,R6
        ADD     A,#0xb
        MOV     R2,A
        MOV     A,R7
        ADDC    A,#0x0
        MOV     R3,A
        LCALL   ??ReadHeightCaptor
        MOV     A,R1
        JZ      ??ucGestionFESTO_9
        ; Setup parameters for call to function CLPompe::SOL722()
        MOV     A,R6
        ADD     A,#0x3
        MOV     R2,A
        MOV     A,R7
        ADDC    A,#0x0
        MOV     R3,A
        LCALL   ??SOL722
        ; Setup parameters for call to function CLEcran::String(char const *)
        MOV     R4,#`?<Constant "SOL722 Active">` & 0xff
        MOV     R5,#(`?<Constant "SOL722 Active">` >> 8) & 0xff
        MOV     DPL,R6
        MOV     DPH,R7
        INC     DPTR
        MOV     R2,DPL
        MOV     R3,DPH
        LCALL   ??String
        SJMP    ??ucGestionFESTO_10
??ucGestionFESTO_11:
        ; Setup parameters for call to function CLPompe::SOL722()
        MOV     A,R6
        ADD     A,#0x3
        MOV     R2,A
        MOV     A,R7
        ADDC    A,#0x0
        MOV     R3,A
        LCALL   ??SOL722
??ucGestionFESTO_10:
        ; Setup parameters for call to function CLFestoCaptors::ReadPreVentouseCaptor()
        MOV     A,R6
        ADD     A,#0xb
        MOV     R2,A
        MOV     A,R7
        ADDC    A,#0x0
        MOV     R3,A
        LCALL   ??ReadPreVentouseCaptor
        MOV     A,R1
        JZ      ??ucGestionFESTO_11
        ; Setup parameters for call to function CLPompe::SOL716()
        MOV     A,R6
        ADD     A,#0x3
        MOV     R2,A
        MOV     A,R7
        ADDC    A,#0x0
        MOV     R3,A
        LCALL   ??SOL716
        ; Setup parameters for call to function CLPompe::SOL719()
        MOV     A,R6
        ADD     A,#0x3
        MOV     R2,A
        MOV     A,R7
        ADDC    A,#0x0
        MOV     R3,A
        LCALL   ??SOL719
        LJMP    ??ucGestionFESTO_2
        CFI EndBlock cfiBlock11
//  280 

        RSEG NEAR_CODE:CODE:NOROOT(0)
//  281 UC CLFesto :: IsTheBlocInTheBolid (void) // Retourne 1 lorsque le bloc est retombé dans le bolide
??IsTheBlocInTheBolid:
        CFI Block cfiBlock12 Using cfiCommon0
        CFI Function ??IsTheBlocInTheBolid
        CODE
//  282 {
        ; Saved register size: 0
        ; Auto size: 0
//  283 return(1);  
        MOV     R1,#0x1
        RET
        CFI EndBlock cfiBlock12
//  284 }
//  285 

        RSEG NEAR_CODE:CODE:NOROOT(0)
//  286 void CLFesto :: Delai(UINT32 Temps)
??Delai:
        CFI Block cfiBlock13 Using cfiCommon0
        CFI Function ??Delai
        CODE
//  287 {
        MOV     A,#-0xf
        LCALL   ?FUNC_ENTER_XDATA
        CFI DPH0 load(1, XDATA, add(CFA_XSP16, literal(-1)))
        CFI DPL0 load(1, XDATA, add(CFA_XSP16, literal(-2)))
        CFI ?RET_HIGH load(1, XDATA, add(CFA_XSP16, literal(-3)))
        CFI ?RET_LOW load(1, XDATA, add(CFA_XSP16, literal(-4)))
        CFI R7 load(1, XDATA, add(CFA_XSP16, literal(-5)))
        CFI V7 load(1, XDATA, add(CFA_XSP16, literal(-6)))
        CFI V6 load(1, XDATA, add(CFA_XSP16, literal(-7)))
        CFI V5 load(1, XDATA, add(CFA_XSP16, literal(-8)))
        CFI V4 load(1, XDATA, add(CFA_XSP16, literal(-9)))
        CFI V3 load(1, XDATA, add(CFA_XSP16, literal(-10)))
        CFI V2 load(1, XDATA, add(CFA_XSP16, literal(-11)))
        CFI V1 load(1, XDATA, add(CFA_XSP16, literal(-12)))
        CFI V0 load(1, XDATA, add(CFA_XSP16, literal(-13)))
        CFI VB load(1, XDATA, add(CFA_XSP16, literal(-14)))
        CFI R6 load(1, XDATA, add(CFA_XSP16, literal(-15)))
        CFI CFA_SP SP+0
        CFI CFA_XSP16 add(XSP16, 15)
        ; Saved register size: 15
        ; Auto size: 0
        MOV     A,#0xf
        LCALL   ?XSTACK_DISP0_8
        MOV     R0,#?V0 + 0
        LCALL   ?L_MOV_X
//  288 unsigned long k;
//  289 for(k = 0; k < Temps; k++);  
        MOV     DPTR,#__Constant_0
        MOV     R0,#?V0 + 4
        LCALL   ?L_MOV_X
        SJMP    ??Delai_1
??Delai_2:
        MOV     DPTR,#__Constant_1
        MOV     R0,#?V0 + 4
        LCALL   ?L_ADD_X
??Delai_1:
        MOV     R0,#?V0 + 0
        MOV     R1,#?V0 + 4
        LCALL   ?UL_GT
        JC      ??Delai_2
//  290 }
        MOV     R7,#0x8
        LJMP    ?FUNC_LEAVE_XDATA
        CFI EndBlock cfiBlock13

        RSEG XDATA_ID:CODE:NOROOT(0)
`?<Initializer for <Constant "SOL725 Active">>`:
        DB "SOL725 Active"

        RSEG XDATA_ID:CODE:NOROOT(0)
`?<Initializer for <Constant "SOL713 Active">>`:
        DB "SOL713 Active"

        RSEG XDATA_ID:CODE:NOROOT(0)
`?<Initializer for <Constant "SOL722 Active">>`:
        DB "SOL722 Active"

        RSEG XDATA_ID:CODE:NOROOT(0)
`?<Initializer for <Constant "No bolid">>`:
        DB "No bolid"

        RSEG XDATA_ID:CODE:NOROOT(0)
`?<Initializer for <Constant "CounterClockWise"`:
        DB "CounterClockWise"

        RSEG XDATA_ID:CODE:NOROOT(0)
`?<Initializer for <Constant "STOP">>`:
        DB "STOP"

        RSEG XDATA_ID:CODE:NOROOT(0)
`?<Initializer for <Constant "ClockWise">>`:
        DB "ClockWise"

        RSEG XDATA_ID:CODE:NOROOT(0)
`?<Initializer for <Constant "No bloc">>`:
        DB "No bloc"

        RSEG XDATA_ID:CODE:NOROOT(0)
`?<Initializer for <Constant "Table FESTO">>`:
        DB "Table FESTO"

        RSEG XDATA_ID:CODE:NOROOT(0)
`?<Initializer for <Constant "Orange">>`:
        DB "Orange"

        RSEG XDATA_ID:CODE:NOROOT(0)
`?<Initializer for <Constant "Noir">>`:
        DB "Noir"

        RSEG XDATA_ID:CODE:NOROOT(0)
`?<Initializer for <Constant "Metallic">>`:
        DB "Metallic"

        RSEG XDATA_ID:CODE:NOROOT(0)
`?<Initializer for __Constant_0>`:
        DATA32
        DD 0

        RSEG XDATA_ID:CODE:NOROOT(0)
`?<Initializer for __Constant_1>`:
        DATA32
        DD 1

        RSEG XDATA_I:XDATA:NOROOT(0)
        DATA8
`?<Constant "SOL725 Active">`:
        DS 14
        REQUIRE `?<Initializer for <Constant "SOL725 Active">>`
        REQUIRE __INIT_XDATA_I

        RSEG XDATA_I:XDATA:NOROOT(0)
        DATA8
`?<Constant "SOL713 Active">`:
        DS 14
        REQUIRE `?<Initializer for <Constant "SOL713 Active">>`
        REQUIRE __INIT_XDATA_I

        RSEG XDATA_I:XDATA:NOROOT(0)
        DATA8
`?<Constant "SOL722 Active">`:
        DS 14
        REQUIRE `?<Initializer for <Constant "SOL722 Active">>`
        REQUIRE __INIT_XDATA_I

        RSEG XDATA_I:XDATA:NOROOT(0)
        DATA8
`?<Constant "No bolid">`:
        DS 9
        REQUIRE `?<Initializer for <Constant "No bolid">>`
        REQUIRE __INIT_XDATA_I

        RSEG XDATA_I:XDATA:NOROOT(0)
        DATA8
`?<Constant "CounterClockWise">`:
        DS 17
        REQUIRE `?<Initializer for <Constant "CounterClockWise"`
        REQUIRE __INIT_XDATA_I

        RSEG XDATA_I:XDATA:NOROOT(0)
        DATA8
`?<Constant "STOP">`:
        DS 5
        REQUIRE `?<Initializer for <Constant "STOP">>`
        REQUIRE __INIT_XDATA_I

        RSEG XDATA_I:XDATA:NOROOT(0)
        DATA8
`?<Constant "ClockWise">`:
        DS 10
        REQUIRE `?<Initializer for <Constant "ClockWise">>`
        REQUIRE __INIT_XDATA_I

        RSEG XDATA_I:XDATA:NOROOT(0)
        DATA8
`?<Constant "No bloc">`:
        DS 8
        REQUIRE `?<Initializer for <Constant "No bloc">>`
        REQUIRE __INIT_XDATA_I

        RSEG XDATA_I:XDATA:NOROOT(0)
        DATA8
`?<Constant "Table FESTO">`:
        DS 12
        REQUIRE `?<Initializer for <Constant "Table FESTO">>`
        REQUIRE __INIT_XDATA_I

        RSEG XDATA_I:XDATA:NOROOT(0)
        DATA8
`?<Constant "Orange">`:
        DS 7
        REQUIRE `?<Initializer for <Constant "Orange">>`
        REQUIRE __INIT_XDATA_I

        RSEG XDATA_I:XDATA:NOROOT(0)
        DATA8
`?<Constant "Noir">`:
        DS 5
        REQUIRE `?<Initializer for <Constant "Noir">>`
        REQUIRE __INIT_XDATA_I

        RSEG XDATA_I:XDATA:NOROOT(0)
        DATA8
`?<Constant "Metallic">`:
        DS 9
        REQUIRE `?<Initializer for <Constant "Metallic">>`
        REQUIRE __INIT_XDATA_I

        RSEG XDATA_I:XDATA:NOROOT(0)
        DATA32
__Constant_0:
        DS 4
        REQUIRE `?<Initializer for __Constant_0>`
        REQUIRE __INIT_XDATA_I

        RSEG XDATA_I:XDATA:NOROOT(0)
        DATA32
__Constant_1:
        DS 4
        REQUIRE `?<Initializer for __Constant_1>`
        REQUIRE __INIT_XDATA_I

        END
//  291 //LinuxLinuxLinuxLinuxLinuxLinuxLinuxLinuxLinuxLinuxLinuxLinuxLinuxLinuxLinuxTUX
// 
// 1 057 bytes in segment NEAR_CODE
//   132 bytes in segment XDATA_I
//   132 bytes in segment XDATA_ID
// 
// 1 181 bytes of CODE  memory (+ 8 bytes shared)
//   124 bytes of XDATA memory (+ 8 bytes shared)
//
//Errors: none
//Warnings: none
