###############################################################################
#                                                                             #
# IAR C/C++ Compiler V8.10.1.40194/W32 for 8051         25/Nov/2014  19:57:44 #
# Copyright 2004-2011 IAR Systems AB.                                         #
#                                                                             #
#    Core               =  plain                                              #
#    Code model         =  near                                               #
#    Data model         =  large                                              #
#    Calling convention =  xdata reentrant                                    #
#    Constant location  =  data                                               #
#    Dptr setup         =  1,16                                               #
#    Source file        =  C:\Synchro\Dropbox\Travaux\Automne                 #
#                          2014\ProjetSession5\ProgrammeDuFESTO\ProgrammeFEST #
#                          O\FESTO.cpp                                        #
#    Command line       =  "C:\Synchro\Dropbox\Travaux\Automne                #
#                          2014\ProjetSession5\ProgrammeDuFESTO\ProgrammeFEST #
#                          O\FESTO.cpp" -D UPSD3254A --preprocess=cl          #
#                          "C:\Synchro\Dropbox\Travaux\Automne                #
#                          2014\ProjetSession5\ProgrammeDuFESTO\ProgrammeFEST #
#                          O\UPSD\List\" -lC "C:\Synchro\Dropbox\Travaux\Auto #
#                          mne 2014\ProjetSession5\ProgrammeDuFESTO\Programme #
#                          FESTO\UPSD\List\" -lA "C:\Synchro\Dropbox\Travaux\ #
#                          Automne 2014\ProjetSession5\ProgrammeDuFESTO\Progr #
#                          ammeFESTO\UPSD\List\" -o                           #
#                          "C:\Synchro\Dropbox\Travaux\Automne                #
#                          2014\ProjetSession5\ProgrammeDuFESTO\ProgrammeFEST #
#                          O\UPSD\Obj\" -e --no_cse --no_unroll --no_inline   #
#                          --no_code_motion --no_tbaa --debug --core=plain    #
#                          --dptr=16,1 --data_model=large --code_model=near   #
#                          --calling_convention=xdata_reentrant               #
#                          --place_constants=data --nr_virtual_regs 8         #
#                          --dlib_config "C:\Program Files (x86)\IAR          #
#                          Systems\Embedded Workbench                         #
#                          6.0\8051\LIB\DLIB\dl8051Normal.h" -Ol --eec++      #
#    List file          =  C:\Synchro\Dropbox\Travaux\Automne                 #
#                          2014\ProjetSession5\ProgrammeDuFESTO\ProgrammeFEST #
#                          O\UPSD\List\FESTO.lst                              #
#    Object file        =  C:\Synchro\Dropbox\Travaux\Automne                 #
#                          2014\ProjetSession5\ProgrammeDuFESTO\ProgrammeFEST #
#                          O\UPSD\Obj\FESTO.r51                               #
#                                                                             #
#                                                                             #
###############################################################################

C:\Synchro\Dropbox\Travaux\Automne 2014\ProjetSession5\ProgrammeDuFESTO\ProgrammeFESTO\FESTO.cpp
      1          // **************************FESTO.cpp
      2          // Auteur:       Prenom Nom
      3          // Date:         19 Octobre 2014
      4          // Version:      1.0
      5          // Modification: Aucune
      6          //
      7          // Compilateur:  IAR 8.1
      8          //
      9          // Description:
     10          // *****************************************************************************
     11          #include "_DeclarationGenerale.h"  // Raccourcis de programmation & variables
     12          #include "FESTO.h"               // Fichier de definitions de...

     UC CLMCP2515 :: LireDonnesMCP2515(UC NombreDonneesEnvoyer, UC Donnee1, UC Donnee2, UC Donnee3);
        ^
"C:\Synchro\Dropbox\Travaux\Automne 2014\ProjetSession5\ProgrammeDuFESTO\ProgrammeFESTO\CLMCP2515.h",42  Warning[Pe427]: 
          qualified name is not allowed in member declaration

  #include "CLPompe.h"                 // Utilisation des pompes de la table FESTO
                                                                                 ^
"C:\Synchro\Dropbox\Travaux\Automne 2014\ProjetSession5\ProgrammeDuFESTO\ProgrammeFESTO\FESTO.h",19  Warning[Pa050]: 
          non-native end of line sequence detected (this diagnostic is only
          issued once)
     13          
     14          //******************************************************************************
     15          //                            LE CONSTRUCTEUR PAR DEFAUT
     16          // *****************************************************************************

   \                                 In  segment NEAR_CODE, align 1, keep-with-next
     17          CLFesto :: CLFesto(void)
   \                     ??CLFesto:
   \   000000   74F8         MOV     A,#-0x8
   \   000002   12....       LCALL   ?FUNC_ENTER_XDATA
   \   000005                ; Saved register size: 8
   \   000005                ; Auto size: 0
   \   000005   EA           MOV     A,R2
   \   000006   FE           MOV     R6,A
   \   000007   EB           MOV     A,R3
   \   000008   FF           MOV     R7,A
     18          {
   \   000009                ; Setup parameters for call to function CLCommunic::CLCommunic()
   \   000009   EE           MOV     A,R6
   \   00000A   FA           MOV     R2,A
   \   00000B   EF           MOV     A,R7
   \   00000C   FB           MOV     R3,A
   \   00000D   12....       LCALL   ??CLCommunic
   \   000010                ; Setup parameters for call to function CLI2CPort::CLI2CPort()
   \   000010   8E82         MOV     DPL,R6
   \   000012   8F83         MOV     DPH,R7
   \   000014   A3           INC     DPTR
   \   000015   AA82         MOV     R2,DPL
   \   000017   AB83         MOV     R3,DPH
   \   000019   12....       LCALL   ??CLI2CPort
   \   00001C                ; Setup parameters for call to function CLMCP2515::CLMCP2515()
   \   00001C   EE           MOV     A,R6
   \   00001D   2403         ADD     A,#0x3
   \   00001F   FA           MOV     R2,A
   \   000020   EF           MOV     A,R7
   \   000021   3400         ADDC    A,#0x0
   \   000023   FB           MOV     R3,A
   \   000024   12....       LCALL   ??CLMCP2515
   \   000027                ; Setup parameters for call to function CLEcran::CLEcran()
   \   000027   EE           MOV     A,R6
   \   000028   240C         ADD     A,#0xc
   \   00002A   FA           MOV     R2,A
   \   00002B   EF           MOV     A,R7
   \   00002C   3400         ADDC    A,#0x0
   \   00002E   FB           MOV     R3,A
   \   00002F   12....       LCALL   ??CLEcran
   \   000032                ; Setup parameters for call to function CLPompe::CLPompe()
   \   000032   EE           MOV     A,R6
   \   000033   240E         ADD     A,#0xe
   \   000035   FA           MOV     R2,A
   \   000036   EF           MOV     A,R7
   \   000037   3400         ADDC    A,#0x0
   \   000039   FB           MOV     R3,A
   \   00003A   12....       LCALL   ??CLPompe
   \   00003D                ; Setup parameters for call to function CLFestoCaptors::CLFestoCaptors()
   \   00003D   EE           MOV     A,R6
   \   00003E   2411         ADD     A,#0x11
   \   000040   FA           MOV     R2,A
   \   000041   EF           MOV     A,R7
   \   000042   3400         ADDC    A,#0x0
   \   000044   FB           MOV     R3,A
   \   000045   12....       LCALL   ??CLFestoCaptors
     19          
     20          }
   \   000048   EE           MOV     A,R6
   \   000049   FA           MOV     R2,A
   \   00004A   EF           MOV     A,R7
   \   00004B   FB           MOV     R3,A
   \   00004C   7F01         MOV     R7,#0x1
   \   00004E   02....       LJMP    ?FUNC_LEAVE_XDATA
     21          
     22          //******************************************************************************
     23          //                            LE CONSTRUCTEUR INITIALISATEUR
     24          // *****************************************************************************

   \                                 In  segment NEAR_CODE, align 1, keep-with-next
     25          CLFesto :: CLFesto(UC ucParametre)
   \                     ??CLFesto_1:
   \   000000   74F8         MOV     A,#-0x8
   \   000002   12....       LCALL   ?FUNC_ENTER_XDATA
   \   000005                ; Saved register size: 8
   \   000005                ; Auto size: 0
   \   000005   EA           MOV     A,R2
   \   000006   FE           MOV     R6,A
   \   000007   EB           MOV     A,R3
   \   000008   FF           MOV     R7,A
     26          {
   \   000009                ; Setup parameters for call to function CLCommunic::CLCommunic()
   \   000009   EE           MOV     A,R6
   \   00000A   FA           MOV     R2,A
   \   00000B   EF           MOV     A,R7
   \   00000C   FB           MOV     R3,A
   \   00000D   12....       LCALL   ??CLCommunic
   \   000010                ; Setup parameters for call to function CLI2CPort::CLI2CPort()
   \   000010   8E82         MOV     DPL,R6
   \   000012   8F83         MOV     DPH,R7
   \   000014   A3           INC     DPTR
   \   000015   AA82         MOV     R2,DPL
   \   000017   AB83         MOV     R3,DPH
   \   000019   12....       LCALL   ??CLI2CPort
   \   00001C                ; Setup parameters for call to function CLMCP2515::CLMCP2515()
   \   00001C   EE           MOV     A,R6
   \   00001D   2403         ADD     A,#0x3
   \   00001F   FA           MOV     R2,A
   \   000020   EF           MOV     A,R7
   \   000021   3400         ADDC    A,#0x0
   \   000023   FB           MOV     R3,A
   \   000024   12....       LCALL   ??CLMCP2515
   \   000027                ; Setup parameters for call to function CLEcran::CLEcran()
   \   000027   EE           MOV     A,R6
   \   000028   240C         ADD     A,#0xc
   \   00002A   FA           MOV     R2,A
   \   00002B   EF           MOV     A,R7
   \   00002C   3400         ADDC    A,#0x0
   \   00002E   FB           MOV     R3,A
   \   00002F   12....       LCALL   ??CLEcran
   \   000032                ; Setup parameters for call to function CLPompe::CLPompe()
   \   000032   EE           MOV     A,R6
   \   000033   240E         ADD     A,#0xe
   \   000035   FA           MOV     R2,A
   \   000036   EF           MOV     A,R7
   \   000037   3400         ADDC    A,#0x0
   \   000039   FB           MOV     R3,A
   \   00003A   12....       LCALL   ??CLPompe
   \   00003D                ; Setup parameters for call to function CLFestoCaptors::CLFestoCaptors()
   \   00003D   EE           MOV     A,R6
   \   00003E   2411         ADD     A,#0x11
   \   000040   FA           MOV     R2,A
   \   000041   EF           MOV     A,R7
   \   000042   3400         ADDC    A,#0x0
   \   000044   FB           MOV     R3,A
   \   000045   12....       LCALL   ??CLFestoCaptors
     27          
     28          }
   \   000048   EE           MOV     A,R6
   \   000049   FA           MOV     R2,A
   \   00004A   EF           MOV     A,R7
   \   00004B   FB           MOV     R3,A
   \   00004C   7F01         MOV     R7,#0x1
   \   00004E   02....       LJMP    ?FUNC_LEAVE_XDATA
     29          
     30          // *****************************************************************************
     31          //                            LE DESTRUCTEUR
     32          // *****************************************************************************

   \                                 In  segment NEAR_CODE, align 1, keep-with-next
     33          CLFesto :: ~CLFesto(void)
   \                     `?~CLFesto`:
     34          {
   \   000000   74F8         MOV     A,#-0x8
   \   000002   12....       LCALL   ?FUNC_ENTER_XDATA
   \   000005                ; Saved register size: 8
   \   000005                ; Auto size: 0
   \   000005   EA           MOV     A,R2
   \   000006   FE           MOV     R6,A
   \   000007   EB           MOV     A,R3
   \   000008   FF           MOV     R7,A
     35          
     36          }
   \   000009                ; Setup parameters for call to function CLFestoCaptors::~CLFestoCaptors()
   \   000009   EE           MOV     A,R6
   \   00000A   2411         ADD     A,#0x11
   \   00000C   FA           MOV     R2,A
   \   00000D   EF           MOV     A,R7
   \   00000E   3400         ADDC    A,#0x0
   \   000010   FB           MOV     R3,A
   \   000011   12....       LCALL   `?~CLFestoCaptors`
   \   000014                ; Setup parameters for call to function CLPompe::~CLPompe()
   \   000014   EE           MOV     A,R6
   \   000015   240E         ADD     A,#0xe
   \   000017   FA           MOV     R2,A
   \   000018   EF           MOV     A,R7
   \   000019   3400         ADDC    A,#0x0
   \   00001B   FB           MOV     R3,A
   \   00001C   12....       LCALL   `?~CLPompe`
   \   00001F                ; Setup parameters for call to function CLEcran::~CLEcran()
   \   00001F   EE           MOV     A,R6
   \   000020   240C         ADD     A,#0xc
   \   000022   FA           MOV     R2,A
   \   000023   EF           MOV     A,R7
   \   000024   3400         ADDC    A,#0x0
   \   000026   FB           MOV     R3,A
   \   000027   12....       LCALL   `?~CLEcran`
   \   00002A                ; Setup parameters for call to function CLMCP2515::~CLMCP2515()
   \   00002A   EE           MOV     A,R6
   \   00002B   2403         ADD     A,#0x3
   \   00002D   FA           MOV     R2,A
   \   00002E   EF           MOV     A,R7
   \   00002F   3400         ADDC    A,#0x0
   \   000031   FB           MOV     R3,A
   \   000032   12....       LCALL   `?~CLMCP2515`
   \   000035                ; Setup parameters for call to function CLI2CPort::~CLI2CPort()
   \   000035   8E82         MOV     DPL,R6
   \   000037   8F83         MOV     DPH,R7
   \   000039   A3           INC     DPTR
   \   00003A   AA82         MOV     R2,DPL
   \   00003C   AB83         MOV     R3,DPH
   \   00003E   12....       LCALL   `?~CLI2CPort`
   \   000041                ; Setup parameters for call to function CLCommunic::~CLCommunic()
   \   000041   EE           MOV     A,R6
   \   000042   FA           MOV     R2,A
   \   000043   EF           MOV     A,R7
   \   000044   FB           MOV     R3,A
   \   000045   12....       LCALL   `?~CLCommunic`
   \   000048   7F01         MOV     R7,#0x1
   \   00004A   02....       LJMP    ?FUNC_LEAVE_XDATA
     37          
     38          // **********************FONCTION: ReadInstructionFromPC()
     39          //
     40          // DESCRIPTION        : Lit des instructions CAN provenant du PC
     41          //
     42          // INCLUDE            : "_DeclarationGenerale.h" "FESTO.h"
     43          //                      
     44          // PROTOTYPE          : UC ReadInstructionFromPC(void)
     45          //
     46          // PROCEDURE D'APPEL  : data = ReadInstructionFromPC()
     47          //
     48          // PARAMETRE D'ENTREE : AUCUN
     49          //
     50          // PARAMETRE DE SORTIE: La trame CAN du PC
     51          //
     52          // Auteur             : Vincent Chouinard
     53          // Date               : 25 novembre 2014   (Version 1.0)
     54          // Modification       :
     55          // *****************************************************************************

   \                                 In  segment NEAR_CODE, align 1, keep-with-next
     56          UC CLFesto :: ReadInstructionFromPC(void)
   \                     ??ReadInstructionFromPC:
     57          {
   \   000000                ; Saved register size: 0
   \   000000                ; Auto size: 0
     58          // MaVar = CAN.Read();
     59          return(NULL);
   \   000000   7900         MOV     R1,#0x0
   \   000002   22           RET
     60          }
     61          
     62          // **********************FONCTION: SendToBolide()
     63          //
     64          // DESCRIPTION        : Envoie une donnée au bolide via Xbee
     65          //
     66          // INCLUDE            : "_DeclarationGenerale.h" "FESTO.h"
     67          //                      
     68          // PROTOTYPE          : void SendToBolide(char const)
     69          //
     70          // PROCEDURE D'APPEL  : SendToBolide("string")
     71          //
     72          // PARAMETRE D'ENTREE : char const
     73          //
     74          // PARAMETRE DE SORTIE: AUCUN
     75          //
     76          // Auteur             : Vincent Chouinard
     77          // Date               : 25 novembre 2014   (Version 1.0)
     78          // Modification       :
     79          // *****************************************************************************

   \                                 In  segment NEAR_CODE, align 1, keep-with-next
     80          void CLFesto :: SendToBolide(char const *ucpMessage)
   \                     ??SendToBolide:
     81          {
   \   000000   74F8         MOV     A,#-0x8
   \   000002   12....       LCALL   ?FUNC_ENTER_XDATA
   \   000005                ; Saved register size: 8
   \   000005                ; Auto size: 0
   \   000005   8A82         MOV     DPL,R2
   \   000007   8B83         MOV     DPH,R3
   \   000009   EC           MOV     A,R4
   \   00000A   FE           MOV     R6,A
   \   00000B   ED           MOV     A,R5
   \   00000C   FF           MOV     R7,A
     82          Xbee.Send('B');               // Envoie au bolide  
   \   00000D                ; Setup parameters for call to function CLCommunic::Send(UC)
   \   00000D   7942         MOV     R1,#0x42
   \   00000F   AA82         MOV     R2,DPL
   \   000011   AB83         MOV     R3,DPH
   \   000013   12....       LCALL   ??Send
     83          Xbee.SendString(ucpMessage);  // La commande passée en paramètres
   \   000016                ; Setup parameters for call to function CLCommunic::SendString(char const *)
   \   000016   EE           MOV     A,R6
   \   000017   FC           MOV     R4,A
   \   000018   EF           MOV     A,R7
   \   000019   FD           MOV     R5,A
   \   00001A   AA82         MOV     R2,DPL
   \   00001C   AB83         MOV     R3,DPH
   \   00001E   12....       LCALL   ??SendString
     84          }
   \   000021   7F01         MOV     R7,#0x1
   \   000023   02....       LJMP    ?FUNC_LEAVE_XDATA
     85          
     86          // **********************FONCTION: SendToStation1()
     87          //
     88          // DESCRIPTION        : Envoie une donnée à la station 1 via Xbee
     89          //
     90          // INCLUDE            : "_DeclarationGenerale.h" "FESTO.h"
     91          //                      
     92          // PROTOTYPE          : void SendToStation1(char const)
     93          //
     94          // PROCEDURE D'APPEL  : SendToStation1("string")
     95          //
     96          // PARAMETRE D'ENTREE : char const
     97          //
     98          // PARAMETRE DE SORTIE: AUCUN
     99          //
    100          // Auteur             : Vincent Chouinard
    101          // Date               : 25 novembre 2014   (Version 1.0)
    102          // Modification       :
    103          // *****************************************************************************

   \                                 In  segment NEAR_CODE, align 1, keep-with-next
    104          void CLFesto :: SendToStation1(char const *ucpMessage)
   \                     ??SendToStation1:
    105          {
   \   000000   74F8         MOV     A,#-0x8
   \   000002   12....       LCALL   ?FUNC_ENTER_XDATA
   \   000005                ; Saved register size: 8
   \   000005                ; Auto size: 0
   \   000005   8A82         MOV     DPL,R2
   \   000007   8B83         MOV     DPH,R3
   \   000009   EC           MOV     A,R4
   \   00000A   FE           MOV     R6,A
   \   00000B   ED           MOV     A,R5
   \   00000C   FF           MOV     R7,A
    106          Xbee.Send('1');               // Envoie au bolide  
   \   00000D                ; Setup parameters for call to function CLCommunic::Send(UC)
   \   00000D   7931         MOV     R1,#0x31
   \   00000F   AA82         MOV     R2,DPL
   \   000011   AB83         MOV     R3,DPH
   \   000013   12....       LCALL   ??Send
    107          Xbee.SendString(ucpMessage);  // La commande passée en paramètres
   \   000016                ; Setup parameters for call to function CLCommunic::SendString(char const *)
   \   000016   EE           MOV     A,R6
   \   000017   FC           MOV     R4,A
   \   000018   EF           MOV     A,R7
   \   000019   FD           MOV     R5,A
   \   00001A   AA82         MOV     R2,DPL
   \   00001C   AB83         MOV     R3,DPH
   \   00001E   12....       LCALL   ??SendString
    108          }
   \   000021   7F01         MOV     R7,#0x1
   \   000023   02....       LJMP    ?FUNC_LEAVE_XDATA
    109          
    110          // **********************FONCTION: GetBlocColor()
    111          //
    112          // DESCRIPTION        : Lit la couleur du bloc et retourne la
    113          //
    114          // INCLUDE            : "_DeclarationGenerale.h" "FESTO.h"
    115          //                      
    116          // PROTOTYPE          : UC GetBlocColor(void)
    117          //
    118          // PROCEDURE D'APPEL  : data = GetBlocColor()
    119          //
    120          // PARAMETRE D'ENTREE : AUCUN
    121          //
    122          // PARAMETRE DE SORTIE: UC
    123          //
    124          // Auteur             : Vincent Chouinard
    125          // Date               : 25 novembre 2014   (Version 1.0)
    126          // Modification       :
    127          // *****************************************************************************

   \                                 In  segment NEAR_CODE, align 1, keep-with-next
    128          UC CLFesto :: GetBlocColor(void)
   \                     ??GetBlocColor:
    129          {
   \   000000   74F5         MOV     A,#-0xb
   \   000002   12....       LCALL   ?FUNC_ENTER_XDATA
   \   000005                ; Saved register size: 11
   \   000005                ; Auto size: 0
   \   000005   8A..         MOV     ?V0 + 0,R2
   \   000007   8B..         MOV     ?V0 + 1,R3
    130          UC ucColor      = 0;
   \   000009   7E00         MOV     R6,#0x0
    131          UC ucCapacitive = 0;
   \   00000B   75..00       MOV     ?V0 + 3,#0x0
    132          UC ucMagnetic   = 0;
   \   00000E   75..00       MOV     ?V0 + 2,#0x0
    133          UC ucOptique    = 0;
   \   000011   7F00         MOV     R7,#0x0
    134          
    135          LCD.vLCDCursor(0,1);
   \   000013                ; Setup parameters for call to function CLEcran::vLCDCursor(UC, UC)
   \   000013   7C01         MOV     R4,#0x1
   \   000015   7900         MOV     R1,#0x0
   \   000017   E5..         MOV     A,?V0 + 0
   \   000019   240C         ADD     A,#0xc
   \   00001B   FA           MOV     R2,A
   \   00001C   E5..         MOV     A,?V0 + 1
   \   00001E   3400         ADDC    A,#0x0
   \   000020   FB           MOV     R3,A
   \   000021   12....       LCALL   ??vLCDCursor
    136          
    137          ////////////Lecture des capteurs
    138          ucCapacitive = Capteur.readCapacitiveCaptor();
   \   000024                ; Setup parameters for call to function CLFestoCaptors::readCapacitiveCaptor()
   \   000024   E5..         MOV     A,?V0 + 0
   \   000026   2411         ADD     A,#0x11
   \   000028   FA           MOV     R2,A
   \   000029   E5..         MOV     A,?V0 + 1
   \   00002B   3400         ADDC    A,#0x0
   \   00002D   FB           MOV     R3,A
   \   00002E   12....       LCALL   ??readCapacitiveCaptor
   \   000031   E9           MOV     A,R1
   \   000032   F5..         MOV     ?V0 + 3,A
    139          ucMagnetic   = Capteur.readInductiveCaptor ();
   \   000034                ; Setup parameters for call to function CLFestoCaptors::readInductiveCaptor()
   \   000034   E5..         MOV     A,?V0 + 0
   \   000036   2411         ADD     A,#0x11
   \   000038   FA           MOV     R2,A
   \   000039   E5..         MOV     A,?V0 + 1
   \   00003B   3400         ADDC    A,#0x0
   \   00003D   FB           MOV     R3,A
   \   00003E   12....       LCALL   ??readInductiveCaptor
   \   000041   E9           MOV     A,R1
   \   000042   F5..         MOV     ?V0 + 2,A
    140          ucOptique    = Capteur.readOpticCaptor     ();
   \   000044                ; Setup parameters for call to function CLFestoCaptors::readOpticCaptor()
   \   000044   E5..         MOV     A,?V0 + 0
   \   000046   2411         ADD     A,#0x11
   \   000048   FA           MOV     R2,A
   \   000049   E5..         MOV     A,?V0 + 1
   \   00004B   3400         ADDC    A,#0x0
   \   00004D   FB           MOV     R3,A
   \   00004E   12....       LCALL   ??readOpticCaptor
   \   000051   E9           MOV     A,R1
   \   000052   FF           MOV     R7,A
    141          
    142          ////////////Prise de décision
    143          if(ucCapacitive == 1) // Si un bloc est présent
   \   000053   7401         MOV     A,#0x1
   \   000055   65..         XRL     A,?V0 + 3
   \   000057   702B         JNZ     ??GetBlocColor_1
    144            {
    145             if((ucMagnetic == 1) && (ucOptique = 1))
                                            ^
Warning[Pe187]: use of "=" where "==" may have been intended
   \   000059   7401         MOV     A,#0x1
   \   00005B   65..         XRL     A,?V0 + 2
   \   00005D   7009         JNZ     ??GetBlocColor_2
   \   00005F   7801         MOV     R0,#0x1
   \   000061   E8           MOV     A,R0
   \   000062   FF           MOV     R7,A
   \   000063   E8           MOV     A,R0
   \   000064   6002         JZ      ??GetBlocColor_2
    146               {
    147                ucColor = METAL;  
   \   000066   7E03         MOV     R6,#0x3
    148               }
    149          
    150             if((ucMagnetic == 0) && (ucOptique = 1))
                                            ^
Warning[Pe187]: use of "=" where "==" may have been intended
   \                     ??GetBlocColor_2:
   \   000068   E5..         MOV     A,?V0 + 2
   \   00006A   7009         JNZ     ??GetBlocColor_3
   \   00006C   7801         MOV     R0,#0x1
   \   00006E   E8           MOV     A,R0
   \   00006F   FF           MOV     R7,A
   \   000070   E8           MOV     A,R0
   \   000071   6002         JZ      ??GetBlocColor_3
    151               {
    152                ucColor = ORANGE;  
   \   000073   7E01         MOV     R6,#0x1
    153               }
    154          
    155             if((ucMagnetic == 0) && (ucOptique = 0))
                                            ^
Warning[Pe187]: use of "=" where "==" may have been intended

  UC ucOptique    = 0;
     ^
"C:\Synchro\Dropbox\Travaux\Automne 2014\ProjetSession5\ProgrammeDuFESTO\ProgrammeFESTO\FESTO.cpp",133  Warning[Pe550]: 
          variable "ucOptique" was set but never used
   \                     ??GetBlocColor_3:
   \   000075   E5..         MOV     A,?V0 + 2
   \   000077   700D         JNZ     ??GetBlocColor_4
   \   000079   7800         MOV     R0,#0x0
   \   00007B   E8           MOV     A,R0
   \   00007C   FF           MOV     R7,A
   \   00007D   E8           MOV     A,R0
   \   00007E   6006         JZ      ??GetBlocColor_4
    156               {
    157                ucColor = NOIR;  
   \   000080   7E02         MOV     R6,#0x2
   \   000082   8002         SJMP    ??GetBlocColor_4
    158               }
    159            }
    160          else
    161            {
    162             ucColor = NOBLOC;
   \                     ??GetBlocColor_1:
   \   000084   7E04         MOV     R6,#0x4
    163            }
    164          
    165          ////////////Écriture des résultats
    166          if(ucColor == ORANGE)
   \                     ??GetBlocColor_4:
   \   000086   7401         MOV     A,#0x1
   \   000088   6E           XRL     A,R6
   \   000089   703D         JNZ     ??GetBlocColor_5
    167            {
    168             LCD.String("Orange");
   \   00008B                ; Setup parameters for call to function CLEcran::String(char const *)
   \   00008B   7C..         MOV     R4,#`?<Constant "Orange">` & 0xff
   \   00008D   7D..         MOV     R5,#(`?<Constant "Orange">` >> 8) & 0xff
   \   00008F   E5..         MOV     A,?V0 + 0
   \   000091   240C         ADD     A,#0xc
   \   000093   FA           MOV     R2,A
   \   000094   E5..         MOV     A,?V0 + 1
   \   000096   3400         ADDC    A,#0x0
   \   000098   FB           MOV     R3,A
   \   000099   12....       LCALL   ??String
    169             SendToBolide("CounterClockWise");
   \   00009C                ; Setup parameters for call to function CLFesto::SendToBolide(char const *)
   \   00009C   7C..         MOV     R4,#`?<Constant "CounterClockWise">` & 0xff
   \   00009E   7D..         MOV     R5,#(`?<Constant "CounterClockWise">` >> 8) & 0xff
   \   0000A0   AA..         MOV     R2,?V0 + 0
   \   0000A2   AB..         MOV     R3,?V0 + 1
   \   0000A4   12....       LCALL   ??SendToBolide
    170             CAN.Write(3, 0x04, 0x01, 0xFF);
   \   0000A7                ; Setup parameters for call to function CLMCP2515::Write(UC, UC, UC, UC)
   \   0000A7   75..FF       MOV     ?V0 + 2,#-0x1
   \   0000AA   78..         MOV     R0,#?V0 + 2
   \   0000AC   12....       LCALL   ?PUSH_XSTACK_I_ONE
   \   0000AF   7D01         MOV     R5,#0x1
   \   0000B1   7C04         MOV     R4,#0x4
   \   0000B3   7903         MOV     R1,#0x3
   \   0000B5   E5..         MOV     A,?V0 + 0
   \   0000B7   2403         ADD     A,#0x3
   \   0000B9   FA           MOV     R2,A
   \   0000BA   E5..         MOV     A,?V0 + 1
   \   0000BC   3400         ADDC    A,#0x0
   \   0000BE   FB           MOV     R3,A
   \   0000BF   12....       LCALL   ??Write
   \   0000C2   7401         MOV     A,#0x1
   \   0000C4   12....       LCALL   ?DEALLOC_XSTACK8
   \   0000C7   E9           MOV     A,R1
    171            }
    172          
    173          if(ucColor == NOIR)
   \                     ??GetBlocColor_5:
   \   0000C8   7402         MOV     A,#0x2
   \   0000CA   6E           XRL     A,R6
   \   0000CB   703D         JNZ     ??GetBlocColor_6
    174            {
    175             LCD.String("Noir");
   \   0000CD                ; Setup parameters for call to function CLEcran::String(char const *)
   \   0000CD   7C..         MOV     R4,#`?<Constant "Noir">` & 0xff
   \   0000CF   7D..         MOV     R5,#(`?<Constant "Noir">` >> 8) & 0xff
   \   0000D1   E5..         MOV     A,?V0 + 0
   \   0000D3   240C         ADD     A,#0xc
   \   0000D5   FA           MOV     R2,A
   \   0000D6   E5..         MOV     A,?V0 + 1
   \   0000D8   3400         ADDC    A,#0x0
   \   0000DA   FB           MOV     R3,A
   \   0000DB   12....       LCALL   ??String
    176             SendToBolide("STOP");
   \   0000DE                ; Setup parameters for call to function CLFesto::SendToBolide(char const *)
   \   0000DE   7C..         MOV     R4,#`?<Constant "STOP">` & 0xff
   \   0000E0   7D..         MOV     R5,#(`?<Constant "STOP">` >> 8) & 0xff
   \   0000E2   AA..         MOV     R2,?V0 + 0
   \   0000E4   AB..         MOV     R3,?V0 + 1
   \   0000E6   12....       LCALL   ??SendToBolide
    177             CAN.Write(3, 0x04, 0x02, 0xFF);
   \   0000E9                ; Setup parameters for call to function CLMCP2515::Write(UC, UC, UC, UC)
   \   0000E9   75..FF       MOV     ?V0 + 2,#-0x1
   \   0000EC   78..         MOV     R0,#?V0 + 2
   \   0000EE   12....       LCALL   ?PUSH_XSTACK_I_ONE
   \   0000F1   7D02         MOV     R5,#0x2
   \   0000F3   7C04         MOV     R4,#0x4
   \   0000F5   7903         MOV     R1,#0x3
   \   0000F7   E5..         MOV     A,?V0 + 0
   \   0000F9   2403         ADD     A,#0x3
   \   0000FB   FA           MOV     R2,A
   \   0000FC   E5..         MOV     A,?V0 + 1
   \   0000FE   3400         ADDC    A,#0x0
   \   000100   FB           MOV     R3,A
   \   000101   12....       LCALL   ??Write
   \   000104   7401         MOV     A,#0x1
   \   000106   12....       LCALL   ?DEALLOC_XSTACK8
   \   000109   E9           MOV     A,R1
    178            }
    179          
    180          if(ucColor == METAL)
   \                     ??GetBlocColor_6:
   \   00010A   7403         MOV     A,#0x3
   \   00010C   6E           XRL     A,R6
   \   00010D   703D         JNZ     ??GetBlocColor_7
    181            {
    182             LCD.String("Metallic");
   \   00010F                ; Setup parameters for call to function CLEcran::String(char const *)
   \   00010F   7C..         MOV     R4,#`?<Constant "Metallic">` & 0xff
   \   000111   7D..         MOV     R5,#(`?<Constant "Metallic">` >> 8) & 0xff
   \   000113   E5..         MOV     A,?V0 + 0
   \   000115   240C         ADD     A,#0xc
   \   000117   FA           MOV     R2,A
   \   000118   E5..         MOV     A,?V0 + 1
   \   00011A   3400         ADDC    A,#0x0
   \   00011C   FB           MOV     R3,A
   \   00011D   12....       LCALL   ??String
    183             SendToBolide("ClockWise");
   \   000120                ; Setup parameters for call to function CLFesto::SendToBolide(char const *)
   \   000120   7C..         MOV     R4,#`?<Constant "ClockWise">` & 0xff
   \   000122   7D..         MOV     R5,#(`?<Constant "ClockWise">` >> 8) & 0xff
   \   000124   AA..         MOV     R2,?V0 + 0
   \   000126   AB..         MOV     R3,?V0 + 1
   \   000128   12....       LCALL   ??SendToBolide
    184             CAN.Write(3, 0x04, 0x00, 0xFF);
   \   00012B                ; Setup parameters for call to function CLMCP2515::Write(UC, UC, UC, UC)
   \   00012B   75..FF       MOV     ?V0 + 2,#-0x1
   \   00012E   78..         MOV     R0,#?V0 + 2
   \   000130   12....       LCALL   ?PUSH_XSTACK_I_ONE
   \   000133   7D00         MOV     R5,#0x0
   \   000135   7C04         MOV     R4,#0x4
   \   000137   7903         MOV     R1,#0x3
   \   000139   E5..         MOV     A,?V0 + 0
   \   00013B   2403         ADD     A,#0x3
   \   00013D   FA           MOV     R2,A
   \   00013E   E5..         MOV     A,?V0 + 1
   \   000140   3400         ADDC    A,#0x0
   \   000142   FB           MOV     R3,A
   \   000143   12....       LCALL   ??Write
   \   000146   7401         MOV     A,#0x1
   \   000148   12....       LCALL   ?DEALLOC_XSTACK8
   \   00014B   E9           MOV     A,R1
    185            }
    186          if(ucColor == NOBLOC)
   \                     ??GetBlocColor_7:
   \   00014C   7404         MOV     A,#0x4
   \   00014E   6E           XRL     A,R6
   \   00014F   7011         JNZ     ??GetBlocColor_8
    187            {
    188             LCD.String("Empty");
   \   000151                ; Setup parameters for call to function CLEcran::String(char const *)
   \   000151   7C..         MOV     R4,#`?<Constant "Empty">` & 0xff
   \   000153   7D..         MOV     R5,#(`?<Constant "Empty">` >> 8) & 0xff
   \   000155   E5..         MOV     A,?V0 + 0
   \   000157   240C         ADD     A,#0xc
   \   000159   FA           MOV     R2,A
   \   00015A   E5..         MOV     A,?V0 + 1
   \   00015C   3400         ADDC    A,#0x0
   \   00015E   FB           MOV     R3,A
   \   00015F   12....       LCALL   ??String
    189            }
    190          return(ucColor);
   \                     ??GetBlocColor_8:
   \   000162   EE           MOV     A,R6
   \   000163   F9           MOV     R1,A
   \   000164   7F04         MOV     R7,#0x4
   \   000166   02....       LJMP    ?FUNC_LEAVE_XDATA
    191          }
    192          
    193          // **********************FONCTION: IsTheBolideHere()
    194          //
    195          // DESCRIPTION        : Vérifie et indique la présence du bolide
    196          //
    197          // INCLUDE            : "_DeclarationGenerale.h" "FESTO.h"
    198          //                      
    199          // PROTOTYPE          : UC IsTheBolideHere(void)
    200          //
    201          // PROCEDURE D'APPEL  : data = IsTheBolideHere()
    202          //
    203          // PARAMETRE D'ENTREE : AUCUN
    204          //
    205          // PARAMETRE DE SORTIE: UC
    206          //
    207          // Auteur             : Vincent Chouinard
    208          // Date               : 25 novembre 2014   (Version 1.0)
    209          // Modification       :
    210          // *****************************************************************************

   \                                 In  segment NEAR_CODE, align 1, keep-with-next
    211          UC CLFesto :: IsTheBolideHere(void)
   \                     ??IsTheBolideHere:
    212          {
   \   000000   74F8         MOV     A,#-0x8
   \   000002   12....       LCALL   ?FUNC_ENTER_XDATA
   \   000005                ; Saved register size: 8
   \   000005                ; Auto size: 0
   \   000005   EA           MOV     A,R2
   \   000006   FE           MOV     R6,A
   \   000007   EB           MOV     A,R3
   \   000008   FF           MOV     R7,A
    213           LCD.String("Table FESTO");
   \   000009                ; Setup parameters for call to function CLEcran::String(char const *)
   \   000009   7C..         MOV     R4,#`?<Constant "Table FESTO">` & 0xff
   \   00000B   7D..         MOV     R5,#(`?<Constant "Table FESTO">` >> 8) & 0xff
   \   00000D   EE           MOV     A,R6
   \   00000E   240C         ADD     A,#0xc
   \   000010   FA           MOV     R2,A
   \   000011   EF           MOV     A,R7
   \   000012   3400         ADDC    A,#0x0
   \   000014   FB           MOV     R3,A
   \   000015   12....       LCALL   ??String
    214           CAN.Write(3, 0x07, 0x02, 0xFF);
   \   000018                ; Setup parameters for call to function CLMCP2515::Write(UC, UC, UC, UC)
   \   000018   75..FF       MOV     ?V0 + 0,#-0x1
   \   00001B   78..         MOV     R0,#?V0 + 0
   \   00001D   12....       LCALL   ?PUSH_XSTACK_I_ONE
   \   000020   7D02         MOV     R5,#0x2
   \   000022   7C07         MOV     R4,#0x7
   \   000024   7903         MOV     R1,#0x3
   \   000026   EE           MOV     A,R6
   \   000027   2403         ADD     A,#0x3
   \   000029   FA           MOV     R2,A
   \   00002A   EF           MOV     A,R7
   \   00002B   3400         ADDC    A,#0x0
   \   00002D   FB           MOV     R3,A
   \   00002E   12....       LCALL   ??Write
   \   000031   7401         MOV     A,#0x1
   \   000033   12....       LCALL   ?DEALLOC_XSTACK8
   \   000036   E9           MOV     A,R1
    215           return(0);
   \   000037   7900         MOV     R1,#0x0
   \   000039   7F01         MOV     R7,#0x1
   \   00003B   02....       LJMP    ?FUNC_LEAVE_XDATA
    216          }
    217          
    218          // **********************FONCTION: ucGestionFESTO()
    219          //
    220          // DESCRIPTION        : Gère toute la séquence de la table Festo
    221          //
    222          // INCLUDE            : "_DeclarationGenerale.h" "FESTO.h"
    223          //                      
    224          // PROTOTYPE          : UC readMagneticCaptor(void)
    225          //
    226          // PROCEDURE D'APPEL  : data = readMagneticCaptor()
    227          //
    228          // PARAMETRE D'ENTREE : AUCUN
    229          //
    230          // PARAMETRE DE SORTIE: UC
    231          //
    232          // Auteur             : Vincent Chouinard
    233          // Date               : 25 novembre 2014   (Version 1.0)
    234          // Modification       :
    235          // *****************************************************************************

   \                                 In  segment NEAR_CODE, align 1, keep-with-next
    236          UC CLFesto :: ucGestionFESTO (void)
   \                     ??ucGestionFESTO:
    237          {
   \   000000   74F8         MOV     A,#-0x8
   \   000002   12....       LCALL   ?FUNC_ENTER_XDATA
   \   000005                ; Saved register size: 8
   \   000005                ; Auto size: 0
   \   000005   EA           MOV     A,R2
   \   000006   FE           MOV     R6,A
   \   000007   EB           MOV     A,R3
   \   000008   FF           MOV     R7,A
    238          UC ucCouleurDuBloc; 
                    ^
Warning[Pe550]: variable "ucCouleurDuBloc" was set but never used
    239            
    240          if(IsTheBolideHere() == TRUE) // Si le bolide est présent à la station FESTO
   \   000009                ; Setup parameters for call to function CLFesto::IsTheBolideHere()
   \   000009   EE           MOV     A,R6
   \   00000A   FA           MOV     R2,A
   \   00000B   EF           MOV     A,R7
   \   00000C   FB           MOV     R3,A
   \   00000D   12....       LCALL   ??IsTheBolideHere
   \   000010   E9           MOV     A,R1
   \   000011   6401         XRL     A,#0x1
   \   000013   707C         JNZ     ??ucGestionFESTO_1
    241            {
    242             if(Capteur.readInductiveCaptor() == NOBLOC) // S'il n'y a pas de bloc dans la zone de départ
   \   000015                ; Setup parameters for call to function CLFestoCaptors::readInductiveCaptor()
   \   000015   EE           MOV     A,R6
   \   000016   2411         ADD     A,#0x11
   \   000018   FA           MOV     R2,A
   \   000019   EF           MOV     A,R7
   \   00001A   3400         ADDC    A,#0x0
   \   00001C   FB           MOV     R3,A
   \   00001D   12....       LCALL   ??readInductiveCaptor
   \   000020   E9           MOV     A,R1
   \   000021   6404         XRL     A,#0x4
   \   000023   701F         JNZ     ??ucGestionFESTO_2
    243               {
    244                Pompe.vPompeSOL725();  // Charge un bloc dans l'aire de chargement
   \   000025                ; Setup parameters for call to function CLPompe::vPompeSOL725()
   \   000025   EE           MOV     A,R6
   \   000026   240E         ADD     A,#0xe
   \   000028   FA           MOV     R2,A
   \   000029   EF           MOV     A,R7
   \   00002A   3400         ADDC    A,#0x0
   \   00002C   FB           MOV     R3,A
   \   00002D   12....       LCALL   ??vPompeSOL725
    245                Delai(5000);
   \   000030                ; Setup parameters for call to function CLFesto::Delai(unsigned long)
   \   000030   90....       MOV     DPTR,#__Constant_1388
   \   000033   12....       LCALL   ?PUSH_XSTACK8_X_FOUR
   \   000036   EE           MOV     A,R6
   \   000037   FA           MOV     R2,A
   \   000038   EF           MOV     A,R7
   \   000039   FB           MOV     R3,A
   \   00003A   12....       LCALL   ??Delai
   \   00003D   7404         MOV     A,#0x4
   \   00003F   12....       LCALL   ?DEALLOC_XSTACK8
   \   000042   804D         SJMP    ??ucGestionFESTO_1
    246               }
    247             else // S'il y a un bloc dans l'aire de chargement
    248               {
    249                ucCouleurDuBloc = GetBlocColor();// Lit la couleur du bloc
   \                     ??ucGestionFESTO_2:
   \   000044                ; Setup parameters for call to function CLFesto::GetBlocColor()
   \   000044   EE           MOV     A,R6
   \   000045   FA           MOV     R2,A
   \   000046   EF           MOV     A,R7
   \   000047   FB           MOV     R3,A
   \   000048   12....       LCALL   ??GetBlocColor
   \   00004B   E9           MOV     A,R1
   \   00004C   800B         SJMP    ??ucGestionFESTO_3
    250                
    251                while((Capteur.readHeightCaptor()) != 66)     // Tant que la plateforme n'a pas fini de s'élever // Note: 66, c'est pas la bonne valeur
    252                  {
    253                   Pompe.vPompeSOL713();                      // Active la pompe d'élévation du bloc
   \                     ??ucGestionFESTO_4:
   \   00004E                ; Setup parameters for call to function CLPompe::vPompeSOL713()
   \   00004E   EE           MOV     A,R6
   \   00004F   240E         ADD     A,#0xe
   \   000051   FA           MOV     R2,A
   \   000052   EF           MOV     A,R7
   \   000053   3400         ADDC    A,#0x0
   \   000055   FB           MOV     R3,A
   \   000056   12....       LCALL   ??vPompeSOL713
    254                  }
   \                     ??ucGestionFESTO_3:
   \   000059                ; Setup parameters for call to function CLFestoCaptors::readHeightCaptor()
   \   000059   EE           MOV     A,R6
   \   00005A   2411         ADD     A,#0x11
   \   00005C   FA           MOV     R2,A
   \   00005D   EF           MOV     A,R7
   \   00005E   3400         ADDC    A,#0x0
   \   000060   FB           MOV     R3,A
   \   000061   12....       LCALL   ??readHeightCaptor
   \   000064   E9           MOV     A,R1
   \   000065   6442         XRL     A,#0x42
   \   000067   70E5         JNZ     ??ucGestionFESTO_4
    255                
    256                while((Capteur.readPreVentouseCaptor()) != 1) // Tant que le bloc n'est pas au bout du convoyeur
   \                     ??ucGestionFESTO_5:
   \   000069                ; Setup parameters for call to function CLFestoCaptors::readPreVentouseCaptor()
   \   000069   EE           MOV     A,R6
   \   00006A   2411         ADD     A,#0x11
   \   00006C   FA           MOV     R2,A
   \   00006D   EF           MOV     A,R7
   \   00006E   3400         ADDC    A,#0x0
   \   000070   FB           MOV     R3,A
   \   000071   12....       LCALL   ??readPreVentouseCaptor
   \   000074   E9           MOV     A,R1
   \   000075   6401         XRL     A,#0x1
   \   000077   600D         JZ      ??ucGestionFESTO_6
    257                  {
    258                   Pompe.vPompeSOL722();                      // Envoie le bloc dans le convoyeur
   \   000079                ; Setup parameters for call to function CLPompe::vPompeSOL722()
   \   000079   EE           MOV     A,R6
   \   00007A   240E         ADD     A,#0xe
   \   00007C   FA           MOV     R2,A
   \   00007D   EF           MOV     A,R7
   \   00007E   3400         ADDC    A,#0x0
   \   000080   FB           MOV     R3,A
   \   000081   12....       LCALL   ??vPompeSOL722
   \   000084   80E3         SJMP    ??ucGestionFESTO_5
    259                  }
    260                Pompe.vPompeSOL719();                         // Rétracte la pompe d'envoie dans le convoyeur
   \                     ??ucGestionFESTO_6:
   \   000086                ; Setup parameters for call to function CLPompe::vPompeSOL719()
   \   000086   EE           MOV     A,R6
   \   000087   240E         ADD     A,#0xe
   \   000089   FA           MOV     R2,A
   \   00008A   EF           MOV     A,R7
   \   00008B   3400         ADDC    A,#0x0
   \   00008D   FB           MOV     R3,A
   \   00008E   12....       LCALL   ??vPompeSOL719
    261               }
    262            }
    263          return(0);
   \                     ??ucGestionFESTO_1:
   \   000091   7900         MOV     R1,#0x0
   \   000093   7F01         MOV     R7,#0x1
   \   000095   02....       LJMP    ?FUNC_LEAVE_XDATA
    264          }
    265          

   \                                 In  segment NEAR_CODE, align 1, keep-with-next
    266          void CLFesto :: Delai(unsigned long Temps)
   \                     ??Delai:
    267          {
   \   000000   74F1         MOV     A,#-0xf
   \   000002   12....       LCALL   ?FUNC_ENTER_XDATA
   \   000005                ; Saved register size: 15
   \   000005                ; Auto size: 0
   \   000005   740F         MOV     A,#0xf
   \   000007   12....       LCALL   ?XSTACK_DISP0_8
   \   00000A   78..         MOV     R0,#?V0 + 0
   \   00000C   12....       LCALL   ?L_MOV_X
    268          unsigned long k;
    269          for(k = 0; k < Temps; k++);  
   \   00000F   90....       MOV     DPTR,#__Constant_0
   \   000012   78..         MOV     R0,#?V0 + 4
   \   000014   12....       LCALL   ?L_MOV_X
   \   000017   8008         SJMP    ??Delai_1
   \                     ??Delai_2:
   \   000019   90....       MOV     DPTR,#__Constant_1
   \   00001C   78..         MOV     R0,#?V0 + 4
   \   00001E   12....       LCALL   ?L_ADD_X
   \                     ??Delai_1:
   \   000021   78..         MOV     R0,#?V0 + 0
   \   000023   79..         MOV     R1,#?V0 + 4
   \   000025   12....       LCALL   ?UL_GT
   \   000028   40EF         JC      ??Delai_2
    270          }
   \   00002A   7F08         MOV     R7,#0x8
   \   00002C   02....       LJMP    ?FUNC_LEAVE_XDATA

   \                                 In  segment XDATA_ID, align 1, keep-with-next
   \                     `?<Initializer for <Constant "Table FESTO">>`:
   \   000000   5461626C     DB "Table FESTO"
   \            65204645
   \            53544F00

   \                                 In  segment XDATA_ID, align 1, keep-with-next
   \                     `?<Initializer for <Constant "Orange">>`:
   \   000000   4F72616E     DB "Orange"
   \            676500  

   \                                 In  segment XDATA_ID, align 1, keep-with-next
   \                     `?<Initializer for <Constant "CounterClockWise"`:
   \   000000   436F756E     DB "CounterClockWise"
   \            74657243
   \            6C6F636B
   \            57697365
   \            00      

   \                                 In  segment XDATA_ID, align 1, keep-with-next
   \                     `?<Initializer for <Constant "Noir">>`:
   \   000000   4E6F6972     DB "Noir"
   \            00      

   \                                 In  segment XDATA_ID, align 1, keep-with-next
   \                     `?<Initializer for <Constant "STOP">>`:
   \   000000   53544F50     DB "STOP"
   \            00      

   \                                 In  segment XDATA_ID, align 1, keep-with-next
   \                     `?<Initializer for <Constant "Metallic">>`:
   \   000000   4D657461     DB "Metallic"
   \            6C6C6963
   \            00      

   \                                 In  segment XDATA_ID, align 1, keep-with-next
   \                     `?<Initializer for <Constant "ClockWise">>`:
   \   000000   436C6F63     DB "ClockWise"
   \            6B576973
   \            6500    

   \                                 In  segment XDATA_ID, align 1, keep-with-next
   \                     `?<Initializer for <Constant "Empty">>`:
   \   000000   456D7074     DB "Empty"
   \            7900    

   \                                 In  segment XDATA_ID, align 1, keep-with-next
   \                     `?<Initializer for __Constant_1388>`:
   \   000000   88130000     DD 5000

   \                                 In  segment XDATA_ID, align 1, keep-with-next
   \                     `?<Initializer for __Constant_0>`:
   \   000000   00000000     DD 0

   \                                 In  segment XDATA_ID, align 1, keep-with-next
   \                     `?<Initializer for __Constant_1>`:
   \   000000   01000000     DD 1

   \                                 In  segment XDATA_I, align 1, keep-with-next
   \                     `?<Constant "Table FESTO">`:
   \   000000                DS 12
   \   00000C                REQUIRE `?<Initializer for <Constant "Table FESTO">>`
   \   00000C                REQUIRE __INIT_XDATA_I

   \                                 In  segment XDATA_I, align 1, keep-with-next
   \                     `?<Constant "Orange">`:
   \   000000                DS 7
   \   000007                REQUIRE `?<Initializer for <Constant "Orange">>`
   \   000007                REQUIRE __INIT_XDATA_I

   \                                 In  segment XDATA_I, align 1, keep-with-next
   \                     `?<Constant "CounterClockWise">`:
   \   000000                DS 17
   \   000011                REQUIRE `?<Initializer for <Constant "CounterClockWise"`
   \   000011                REQUIRE __INIT_XDATA_I

   \                                 In  segment XDATA_I, align 1, keep-with-next
   \                     `?<Constant "Noir">`:
   \   000000                DS 5
   \   000005                REQUIRE `?<Initializer for <Constant "Noir">>`
   \   000005                REQUIRE __INIT_XDATA_I

   \                                 In  segment XDATA_I, align 1, keep-with-next
   \                     `?<Constant "STOP">`:
   \   000000                DS 5
   \   000005                REQUIRE `?<Initializer for <Constant "STOP">>`
   \   000005                REQUIRE __INIT_XDATA_I

   \                                 In  segment XDATA_I, align 1, keep-with-next
   \                     `?<Constant "Metallic">`:
   \   000000                DS 9
   \   000009                REQUIRE `?<Initializer for <Constant "Metallic">>`
   \   000009                REQUIRE __INIT_XDATA_I

   \                                 In  segment XDATA_I, align 1, keep-with-next
   \                     `?<Constant "ClockWise">`:
   \   000000                DS 10
   \   00000A                REQUIRE `?<Initializer for <Constant "ClockWise">>`
   \   00000A                REQUIRE __INIT_XDATA_I

   \                                 In  segment XDATA_I, align 1, keep-with-next
   \                     `?<Constant "Empty">`:
   \   000000                DS 6
   \   000006                REQUIRE `?<Initializer for <Constant "Empty">>`
   \   000006                REQUIRE __INIT_XDATA_I

   \                                 In  segment XDATA_I, align 1, keep-with-next
   \                     __Constant_1388:
   \   000000                DS 4
   \   000004                REQUIRE `?<Initializer for __Constant_1388>`
   \   000004                REQUIRE __INIT_XDATA_I

   \                                 In  segment XDATA_I, align 1, keep-with-next
   \                     __Constant_0:
   \   000000                DS 4
   \   000004                REQUIRE `?<Initializer for __Constant_0>`
   \   000004                REQUIRE __INIT_XDATA_I

   \                                 In  segment XDATA_I, align 1, keep-with-next
   \                     __Constant_1:
   \   000000                DS 4
   \   000004                REQUIRE `?<Initializer for __Constant_1>`
   \   000004                REQUIRE __INIT_XDATA_I

   \                                 In  segment NEAR_CODE, align 1, keep-with-next
   \   __near_func __xdata_reentrant CLFesto &CLFesto::new CLFesto()
   \                     `??new CLFesto`:
   \   000000   C0..         PUSH    ?V0 + 0
   \   000002   C0..         PUSH    ?V0 + 1
   \   000004                ; Saved register size: 2
   \   000004                ; Auto size: 0
   \   000004                ; Setup parameters for call to function operator new(unsigned int)
   \   000004   7A14         MOV     R2,#0x14
   \   000006   7B00         MOV     R3,#0x0
   \   000008   12....       LCALL   `??operator new`
   \   00000B   8A..         MOV     ?V0 + 0,R2
   \   00000D   8B..         MOV     ?V0 + 1,R3
   \   00000F   A8..         MOV     R0,?V0 + 0
   \   000011   A9..         MOV     R1,?V0 + 1
   \   000013   E8           MOV     A,R0
   \   000014   FA           MOV     R2,A
   \   000015   E9           MOV     A,R1
   \   000016   FB           MOV     R3,A
   \   000017   E8           MOV     A,R0
   \   000018   49           ORL     A,R1
   \   000019   600D         JZ      `??new CLFesto_2`
   \   00001B                ; Setup parameters for call to function CLFesto::CLFesto()
   \   00001B   12....       LCALL   ??CLFesto
   \   00001E   8A..         MOV     ?V0 + 0,R2
   \   000020   8B..         MOV     ?V0 + 1,R3
   \   000022   AA..         MOV     R2,?V0 + 0
   \   000024   AB..         MOV     R3,?V0 + 1
   \   000026   8004         SJMP    `??new CLFesto_3`
   \                     `??new CLFesto_2`:
   \   000028   7A00         MOV     R2,#0x0
   \   00002A   7B00         MOV     R3,#0x0
   \                     `??new CLFesto_3`:
   \   00002C   D0..         POP     ?V0 + 1
   \   00002E   D0..         POP     ?V0 + 0
   \   000030   22           RET

   \                                 In  segment NEAR_CODE, align 1, keep-with-next
   \   __near_func __xdata_reentrant CLFesto &CLFesto::new CLFesto(UC)
   \                     `??new CLFesto_1`:
   \   000000   74F7         MOV     A,#-0x9
   \   000002   12....       LCALL   ?FUNC_ENTER_XDATA
   \   000005                ; Saved register size: 9
   \   000005                ; Auto size: 0
   \   000005   E9           MOV     A,R1
   \   000006   FE           MOV     R6,A
   \   000007                ; Setup parameters for call to function operator new(unsigned int)
   \   000007   7A14         MOV     R2,#0x14
   \   000009   7B00         MOV     R3,#0x0
   \   00000B   12....       LCALL   `??operator new`
   \   00000E   8A..         MOV     ?V0 + 0,R2
   \   000010   8B..         MOV     ?V0 + 1,R3
   \   000012   A8..         MOV     R0,?V0 + 0
   \   000014   A9..         MOV     R1,?V0 + 1
   \   000016   E8           MOV     A,R0
   \   000017   FA           MOV     R2,A
   \   000018   E9           MOV     A,R1
   \   000019   FB           MOV     R3,A
   \   00001A   E8           MOV     A,R0
   \   00001B   49           ORL     A,R1
   \   00001C   600F         JZ      `??new CLFesto_4`
   \   00001E                ; Setup parameters for call to function CLFesto::CLFesto(UC)
   \   00001E   EE           MOV     A,R6
   \   00001F   F9           MOV     R1,A
   \   000020   12....       LCALL   ??CLFesto_1
   \   000023   8A..         MOV     ?V0 + 0,R2
   \   000025   8B..         MOV     ?V0 + 1,R3
   \   000027   AA..         MOV     R2,?V0 + 0
   \   000029   AB..         MOV     R3,?V0 + 1
   \   00002B   8004         SJMP    `??new CLFesto_5`
   \                     `??new CLFesto_4`:
   \   00002D   7A00         MOV     R2,#0x0
   \   00002F   7B00         MOV     R3,#0x0
   \                     `??new CLFesto_5`:
   \   000031   7F02         MOV     R7,#0x2
   \   000033   02....       LJMP    ?FUNC_LEAVE_XDATA

   \                                 In  segment NEAR_CODE, align 1, keep-with-next
   \   __near_func __xdata_reentrant void CLFesto::delete ~CLFesto(CLFesto *)
   \                     `??delete ~CLFesto`:
   \   000000   74F8         MOV     A,#-0x8
   \   000002   12....       LCALL   ?FUNC_ENTER_XDATA
   \   000005                ; Saved register size: 8
   \   000005                ; Auto size: 0
   \   000005   EA           MOV     A,R2
   \   000006   FE           MOV     R6,A
   \   000007   EB           MOV     A,R3
   \   000008   FF           MOV     R7,A
   \   000009   EE           MOV     A,R6
   \   00000A   4F           ORL     A,R7
   \   00000B   600E         JZ      `??delete ~CLFesto_1`
   \   00000D                ; Setup parameters for call to function CLFesto::~CLFesto()
   \   00000D   EE           MOV     A,R6
   \   00000E   FA           MOV     R2,A
   \   00000F   EF           MOV     A,R7
   \   000010   FB           MOV     R3,A
   \   000011   12....       LCALL   `?~CLFesto`
   \   000014                ; Setup parameters for call to function operator delete(void *)
   \   000014   EE           MOV     A,R6
   \   000015   FA           MOV     R2,A
   \   000016   EF           MOV     A,R7
   \   000017   FB           MOV     R3,A
   \   000018   12....       LCALL   `??operator delete`
   \                     `??delete ~CLFesto_1`:
   \   00001B   7F01         MOV     R7,#0x1
   \   00001D   02....       LJMP    ?FUNC_LEAVE_XDATA
    271          //LinuxLinuxLinuxLinuxLinuxLinuxLinuxLinuxLinuxLinuxLinuxLinuxLinuxLinuxLinuxTUX

   Maximum stack usage in bytes:

     Function                       ISTACK PSTACK XSTACK
     --------                       ------ ------ ------
     CLFesto::CLFesto()                 0      0      8
       -> CLCommunic::CLCommunic()      0      0     16
       -> CLI2CPort::CLI2CPort()        0      0     16
       -> CLMCP2515::CLMCP2515()        0      0     16
       -> CLEcran::CLEcran()            0      0     16
       -> CLPompe::CLPompe()            0      0     16
       -> CLFestoCaptors::CLFestoCaptors()
                                        0      0     16
     CLFesto::CLFesto(UC)               0      0     17
       -> CLCommunic::CLCommunic()      0      0     16
       -> CLI2CPort::CLI2CPort()        0      0     16
       -> CLMCP2515::CLMCP2515()        0      0     16
       -> CLEcran::CLEcran()            0      0     16
       -> CLPompe::CLPompe()            0      0     16
       -> CLFestoCaptors::CLFestoCaptors()
                                        0      0     16
     CLFesto::Delai(unsigned long)      0      0     27
     CLFesto::GetBlocColor()            0      0     20
       -> CLEcran::vLCDCursor(UC, UC)
                                        0      0     22
       -> CLFestoCaptors::readCapacitiveCaptor()
                                        0      0     22
       -> CLFestoCaptors::readInductiveCaptor()
                                        0      0     22
       -> CLFestoCaptors::readOpticCaptor()
                                        0      0     22
       -> CLEcran::String(char const *)
                                        0      0     22
       -> CLFesto::SendToBolide(char const *)
                                        0      0     22
       -> CLMCP2515::Write(UC, UC, UC, UC)
                                        0      0     24
       -> CLEcran::String(char const *)
                                        0      0     22
       -> CLFesto::SendToBolide(char const *)
                                        0      0     22
       -> CLMCP2515::Write(UC, UC, UC, UC)
                                        0      0     24
       -> CLEcran::String(char const *)
                                        0      0     22
       -> CLFesto::SendToBolide(char const *)
                                        0      0     22
       -> CLMCP2515::Write(UC, UC, UC, UC)
                                        0      0     24
       -> CLEcran::String(char const *)
                                        0      0     22
     CLFesto::IsTheBolideHere()         0      0     17
       -> CLEcran::String(char const *)
                                        0      0     16
       -> CLMCP2515::Write(UC, UC, UC, UC)
                                        0      0     18
     CLFesto::ReadInstructionFromPC()
                                        0      0      0
     CLFesto::SendToBolide(char const *)
                                        0      0     19
       -> CLCommunic::Send(UC)          0      0     16
       -> CLCommunic::SendString(char const *)
                                        0      0     16
     CLFesto::SendToStation1(char const *)
                                        0      0      8
       -> CLCommunic::Send(UC)          0      0     16
       -> CLCommunic::SendString(char const *)
                                        0      0     16
     CLFesto::delete ~CLFesto(CLFesto *)
                                        0      0      8
       -> CLFesto::~CLFesto()           0      0     16
       -> operator delete(void *)       0      0     16
     CLFesto::new CLFesto()             2      0      0
       -> operator new(unsigned int)
                                        4      0      0
       -> CLFesto::CLFesto()            4      0      0
     CLFesto::new CLFesto(UC)           0      0      9
       -> operator new(unsigned int)
                                        0      0     18
       -> CLFesto::CLFesto(UC)          0      0     18
     CLFesto::ucGestionFESTO()          0      0     12
       -> CLFesto::IsTheBolideHere()
                                        0      0     16
       -> CLFestoCaptors::readInductiveCaptor()
                                        0      0     16
       -> CLPompe::vPompeSOL725()       0      0     16
       -> CLFesto::Delai(unsigned long)
                                        0      0     24
       -> CLFesto::GetBlocColor()       0      0     16
       -> CLPompe::vPompeSOL713()       0      0     16
       -> CLFestoCaptors::readHeightCaptor()
                                        0      0     16
       -> CLFestoCaptors::readPreVentouseCaptor()
                                        0      0     16
       -> CLPompe::vPompeSOL722()       0      0     16
       -> CLPompe::vPompeSOL719()       0      0     16
     CLFesto::~CLFesto()                0      0     16
       -> CLFestoCaptors::~CLFestoCaptors()
                                        0      0     16
       -> CLPompe::~CLPompe()           0      0     16
       -> CLEcran::~CLEcran()           0      0     16
       -> CLMCP2515::~CLMCP2515()       0      0     16
       -> CLI2CPort::~CLI2CPort()       0      0     16
       -> CLCommunic::~CLCommunic()     0      0     16


   Segment part sizes:

     Function/Label                                 Bytes
     --------------                                 -----
     CLFesto::CLFesto()                               81
     CLFesto::CLFesto(UC)                             81
     CLFesto::~CLFesto()                              77
     CLFesto::ReadInstructionFromPC()
                                                       3
     CLFesto::SendToBolide(char const *)
                                                      38
     CLFesto::SendToStation1(char const *)
                                                      38
     CLFesto::GetBlocColor()                         361
     CLFesto::IsTheBolideHere()                       62
     CLFesto::ucGestionFESTO()                       152
     CLFesto::Delai(unsigned long)                    47
     ?<Initializer for <Constant "Table FESTO">>      12
     ?<Initializer for <Constant "Orange">>            7
     ?<Initializer for <Constant "CounterClockWise"   17
     ?<Initializer for <Constant "Noir">>              5
     ?<Initializer for <Constant "STOP">>              5
     ?<Initializer for <Constant "Metallic">>          9
     ?<Initializer for <Constant "ClockWise">>        10
     ?<Initializer for <Constant "Empty">>             6
     ?<Initializer for __Constant_1388>                4
     ?<Initializer for __Constant_0>                   4
     ?<Initializer for __Constant_1>                   4
     ?<Constant "Table FESTO">                        12
     ?<Constant "Orange">                              7
     ?<Constant "CounterClockWise">                   17
     ?<Constant "Noir">                                5
     ?<Constant "STOP">                                5
     ?<Constant "Metallic">                            9
     ?<Constant "ClockWise">                          10
     ?<Constant "Empty">                               6
     __Constant_1388                                   4
     __Constant_0                                      4
     __Constant_1                                      4
     CLFesto::new CLFesto()                           49
     CLFesto::new CLFesto(UC)                         54
     CLFesto::delete ~CLFesto(CLFesto *)
                                                      32

 
 1 075 bytes in segment NEAR_CODE
    83 bytes in segment XDATA_I
    83 bytes in segment XDATA_ID
 
 1 146 bytes of CODE  memory (+ 12 bytes shared)
    71 bytes of XDATA memory (+ 12 bytes shared)

Errors: none
Warnings: 7
