///////////////////////////////////////////////////////////////////////////////
//                                                                            /
// IAR C/C++ Compiler V8.20.2.41139 for 8051            11/Nov/2014  11:41:09 /
// Copyright 2004-2013 IAR Systems AB.                                        /
//                                                                            /
//    Core               =  plain                                             /
//    Code model         =  near                                              /
//    Data model         =  large                                             /
//    Calling convention =  xdata reentrant                                   /
//    Constant location  =  data                                              /
//    Dptr setup         =  1,16                                              /
//                                                                            /
//    Source file        =  C:\Users\1230838\Desktop\PROJETSESSION5\BLOC3\Pro /
//                          gramme\FESTO\Libraire\CLADDA.cpp                  /
//    Command line       =  C:\Users\1230838\Desktop\PROJETSESSION5\BLOC3\Pro /
//                          gramme\FESTO\Libraire\CLADDA.cpp -D UPSD3254A     /
//                          --preprocess=cl C:\Users\1230838\Desktop\PROJETSE /
//                          SSION5\BLOC3\Programme\FESTO\UPSD\List\ -lC       /
//                          C:\Users\1230838\Desktop\PROJETSESSION5\BLOC3\Pro /
//                          gramme\FESTO\UPSD\List\ -lA                       /
//                          C:\Users\1230838\Desktop\PROJETSESSION5\BLOC3\Pro /
//                          gramme\FESTO\UPSD\List\ -o                        /
//                          C:\Users\1230838\Desktop\PROJETSESSION5\BLOC3\Pro /
//                          gramme\FESTO\UPSD\Obj\ -e --no_cse --no_unroll    /
//                          --no_inline --no_code_motion --no_tbaa --debug    /
//                          --core=plain --dptr=16,1 --data_model=large       /
//                          --code_model=near --calling_convention=xdata_reen /
//                          trant --place_constants=data --nr_virtual_regs 8  /
//                          --dlib_config "C:\Program Files\IAR               /
//                          Systems\Embedded Workbench                        /
//                          6.4\8051\LIB\DLIB\dl8051Normal.h" -Ol --eec++     /
//    List file          =  C:\Users\1230838\Desktop\PROJETSESSION5\BLOC3\Pro /
//                          gramme\FESTO\UPSD\List\CLADDA.s51                 /
//                                                                            /
//                                                                            /
///////////////////////////////////////////////////////////////////////////////

        NAME CLADDA

        RTMODEL "__SystemLibrary", "DLib"
        RTMODEL "__calling_convention", "xdata_reentrant"
        RTMODEL "__code_model", "near"
        RTMODEL "__core", "plain"
        RTMODEL "__data_model", "large"
        RTMODEL "__dptr_size", "16"
        RTMODEL "__extended_stack", "disabled"
        RTMODEL "__location_for_constants", "data"
        RTMODEL "__number_of_dptrs", "1"
        RTMODEL "__rt_version", "1"

        RSEG DOVERLAY:DATA:NOROOT(0)
        RSEG IOVERLAY:IDATA:NOROOT(0)
        RSEG ISTACK:IDATA:NOROOT(0)
        RSEG PSTACK:XDATA:NOROOT(0)
        RSEG XSTACK:XDATA:NOROOT(0)

        ERROR
//NOTE: This module defines or uses C++ features that are not
//      accessible from assembler code. Assembling this file will
//      not produce an equivalent object file to the one produced
//      by the C++ compiler.

        EXTERN ?FUNC_ENTER_XDATA
        EXTERN ?FUNC_LEAVE_XDATA
        EXTERN ?V0

        PUBLIC ??CLADDA
        FUNCTION ??CLADDA,0203H
        ARGFRAME XSTACK, 0, STACK
        ARGFRAME IOVERLAY, 0, STATIC
        ARGFRAME DOVERLAY, 0, STATIC
        PUBLIC `??delete ~CLADDA`
        FUNCTION `??delete ~CLADDA`,021203H
        ARGFRAME XSTACK, 0, STACK
        LOCFRAME XSTACK, 8, STACK
        PUBLIC `??new CLADDA`
        FUNCTION `??new CLADDA`,021203H
        ARGFRAME XSTACK, 0, STACK
        LOCFRAME ISTACK, 2, STACK
        PUBLIC ??ucConvADBuf
        FUNCTION ??ucConvADBuf,021203H
        ARGFRAME XSTACK, 0, STACK
        LOCFRAME ISTACK, 2, STACK
        PUBLIC ??ucDataIN
        FUNCTION ??ucDataIN,021203H
        ARGFRAME XSTACK, 0, STACK
        LOCFRAME ISTACK, 1, STACK
        PUBLIC ??vConvDALatch
        FUNCTION ??vConvDALatch,021203H
        ARGFRAME XSTACK, 0, STACK
        LOCFRAME XSTACK, 9, STACK
        PUBLIC `?~CLADDA`
        FUNCTION `?~CLADDA`,0203H
        ARGFRAME XSTACK, 8, STACK
        ARGFRAME IOVERLAY, 0, STATIC
        ARGFRAME DOVERLAY, 0, STATIC
        PUBWEAK _A_P3
        
          CFI Names cfiNames0
          CFI StackFrame CFA_SP SP IDATA
          CFI StackFrame CFA_PSP16 PSP16 XDATA
          CFI StackFrame CFA_XSP16 XSP16 XDATA
          CFI StaticOverlayFrame CFA_IOVERLAY IOVERLAY
          CFI StaticOverlayFrame CFA_DOVERLAY DOVERLAY
          CFI Resource `PSW.CY`:1, `B.BR0`:1, `B.BR1`:1, `B.BR2`:1, `B.BR3`:1
          CFI Resource `B.BR4`:1, `B.BR5`:1, `B.BR6`:1, `B.BR7`:1, `VB.BR8`:1
          CFI Resource `VB.BR9`:1, `VB.BR10`:1, `VB.BR11`:1, `VB.BR12`:1
          CFI Resource `VB.BR13`:1, `VB.BR14`:1, `VB.BR15`:1, VB:8, B:8, A:8
          CFI Resource PSW:8, DPL0:8, DPH0:8, R0:8, R1:8, R2:8, R3:8, R4:8, R5:8
          CFI Resource R6:8, R7:8, V0:8, V1:8, V2:8, V3:8, V4:8, V5:8, V6:8, V7:8
          CFI Resource SP:8, PSPH:8, PSPL:8, PSP16:16, XSPH:8, XSPL:8, XSP16:16
          CFI VirtualResource ?RET:16, ?RET_HIGH:8, ?RET_LOW:8
          CFI ResourceParts PSP16 PSPH, PSPL
          CFI ResourceParts XSP16 XSPH, XSPL
          CFI ResourceParts ?RET ?RET_HIGH, ?RET_LOW
          CFI EndNames cfiNames0
        
          CFI Common cfiCommon0 Using cfiNames0
          CFI CodeAlign 1
          CFI DataAlign -1
          CFI ReturnAddress ?RET CODE
          CFI CFA_DOVERLAY Used
          CFI CFA_IOVERLAY Used
          CFI CFA_SP SP+-2
          CFI CFA_PSP16 PSP16+0
          CFI CFA_XSP16 XSP16+0
          CFI `PSW.CY` SameValue
          CFI `B.BR0` SameValue
          CFI `B.BR1` SameValue
          CFI `B.BR2` SameValue
          CFI `B.BR3` SameValue
          CFI `B.BR4` SameValue
          CFI `B.BR5` SameValue
          CFI `B.BR6` SameValue
          CFI `B.BR7` SameValue
          CFI `VB.BR8` SameValue
          CFI `VB.BR9` SameValue
          CFI `VB.BR10` SameValue
          CFI `VB.BR11` SameValue
          CFI `VB.BR12` SameValue
          CFI `VB.BR13` SameValue
          CFI `VB.BR14` SameValue
          CFI `VB.BR15` SameValue
          CFI VB SameValue
          CFI B Undefined
          CFI A Undefined
          CFI PSW SameValue
          CFI DPL0 SameValue
          CFI DPH0 SameValue
          CFI R0 Undefined
          CFI R1 Undefined
          CFI R2 Undefined
          CFI R3 Undefined
          CFI R4 Undefined
          CFI R5 Undefined
          CFI R6 SameValue
          CFI R7 SameValue
          CFI V0 SameValue
          CFI V1 SameValue
          CFI V2 SameValue
          CFI V3 SameValue
          CFI V4 SameValue
          CFI V5 SameValue
          CFI V6 SameValue
          CFI V7 SameValue
          CFI PSPH Undefined
          CFI PSPL Undefined
          CFI XSPH Undefined
          CFI XSPL Undefined
          CFI ?RET Concat
          CFI ?RET_HIGH Frame(CFA_SP, 2)
          CFI ?RET_LOW Frame(CFA_SP, 1)
          CFI EndCommon cfiCommon0
        
        EXTERN `??operator delete`
        FUNCTION `??operator delete`,010202H
        ARGFRAME ISTACK, 0, STACK
        ARGFRAME PSTACK, 0, STACK
        ARGFRAME XSTACK, 8, STACK
        ARGFRAME IOVERLAY, 0, STATIC
        ARGFRAME DOVERLAY, 0, STATIC
        EXTERN `??operator new`
        FUNCTION `??operator new`,010202H
        ARGFRAME ISTACK, 2, STACK
        ARGFRAME PSTACK, 0, STACK
        ARGFRAME XSTACK, 0, STACK
        ARGFRAME IOVERLAY, 0, STATIC
        ARGFRAME DOVERLAY, 0, STATIC
        EXTERN ??ucIn
        FUNCTION ??ucIn,0202H
        ARGFRAME ISTACK, 2, STACK
        ARGFRAME PSTACK, 0, STACK
        ARGFRAME XSTACK, 0, STACK
        ARGFRAME IOVERLAY, 0, STATIC
        ARGFRAME DOVERLAY, 0, STATIC
        EXTERN ??vOut
        FUNCTION ??vOut,0202H
        ARGFRAME ISTACK, 0, STACK
        ARGFRAME PSTACK, 0, STACK
        ARGFRAME XSTACK, 9, STACK
        ARGFRAME IOVERLAY, 0, STATIC
        ARGFRAME DOVERLAY, 0, STATIC

// C:\Users\1230838\Desktop\PROJETSESSION5\BLOC3\Programme\FESTO\Libraire\CLADDA.cpp
//    1 // ***************** FICHIER:CLI2CBase.cpp
//    2 //
//    3 //  Description:Ce fichier contient la definition des differentes fonction 
//    4 //              I2C de base qui communique avec le materiel
//    5 //
//    6 //  Application realisee avec IAR
//    7 //
//    8 //  AUTEUR : Gabriel Fortin-Belanger
//    9 //  DATE CREATION :    2014-02-07		 VERSION: 1.0
//   10 //  DATE MODIFICATION: ****-**-**
//   11 //
//   12 //******************************************************************************
//   13 
//   14 #include "_DeclarationGenerale.h"

        ASEGN SFR_AN:DATA:NOROOT,0b0H
// union <unnamed> volatile __sfr _A_P3
_A_P3:
        DATA8
        DS 1

        RSEG NEAR_CODE:CODE:NOROOT(0)
// __near_func __xdata_reentrant CLADDA &CLADDA::new CLADDA()
`??new CLADDA`:
          CFI Block cfiBlock0 Using cfiCommon0
          CFI Function `??new CLADDA`
        CODE
        FUNCALL `??new CLADDA`, `??operator new`
        LOCFRAME ISTACK, 2, STACK
        LOCFRAME PSTACK, 0, STACK
        LOCFRAME XSTACK, 0, STACK
        LOCFRAME IOVERLAY, 0, STATIC
        LOCFRAME DOVERLAY, 0, STATIC
        ARGFRAME ISTACK, 2, STACK
        ARGFRAME PSTACK, 0, STACK
        ARGFRAME XSTACK, 0, STACK
        ARGFRAME IOVERLAY, 0, STATIC
        ARGFRAME DOVERLAY, 0, STATIC
        FUNCALL `??new CLADDA`, ??CLADDA
        LOCFRAME ISTACK, 2, STACK
        LOCFRAME PSTACK, 0, STACK
        LOCFRAME XSTACK, 0, STACK
        LOCFRAME IOVERLAY, 0, STATIC
        LOCFRAME DOVERLAY, 0, STATIC
        ARGFRAME ISTACK, 2, STACK
        ARGFRAME PSTACK, 0, STACK
        ARGFRAME XSTACK, 0, STACK
        ARGFRAME IOVERLAY, 0, STATIC
        ARGFRAME DOVERLAY, 0, STATIC
        PUSH    ?V0 + 0
          CFI V0 Frame(CFA_SP, 3)
          CFI CFA_SP SP+-3
        PUSH    ?V0 + 1
          CFI V1 Frame(CFA_SP, 4)
          CFI CFA_SP SP+-4
        ; Saved register size: 2
        ; Auto size: 0
        ; Setup parameters for call to function operator new(unsigned int)
        MOV     R2,#0x4
        MOV     R3,#0x0
        LCALL   `??operator new`
        MOV     ?V0 + 0,R2
        MOV     ?V0 + 1,R3
        MOV     R0,?V0 + 0
        MOV     R1,?V0 + 1
        MOV     A,R0
        MOV     R2,A
        MOV     A,R1
        MOV     R3,A
        MOV     A,R0
        ORL     A,R1
        JZ      `??new CLADDA_1`
        ; Setup parameters for call to function CLADDA::CLADDA()
        LCALL   ??CLADDA
        MOV     ?V0 + 0,R2
        MOV     ?V0 + 1,R3
        MOV     R2,?V0 + 0
        MOV     R3,?V0 + 1
        SJMP    `??new CLADDA_2`
`??new CLADDA_1`:
        MOV     R2,#0x0
        MOV     R3,#0x0
`??new CLADDA_2`:
        POP     ?V0 + 1
          CFI V1 SameValue
          CFI CFA_SP SP+-3
        POP     ?V0 + 0
          CFI V0 SameValue
          CFI CFA_SP SP+-2
        RET
          CFI EndBlock cfiBlock0

        RSEG NEAR_CODE:CODE:NOROOT(0)
// __near_func __xdata_reentrant void CLADDA::delete ~CLADDA(CLADDA *)
`??delete ~CLADDA`:
          CFI Block cfiBlock1 Using cfiCommon0
          CFI Function `??delete ~CLADDA`
        CODE
        FUNCALL `??delete ~CLADDA`, `?~CLADDA`
        LOCFRAME ISTACK, 0, STACK
        LOCFRAME PSTACK, 0, STACK
        LOCFRAME XSTACK, 8, STACK
        LOCFRAME IOVERLAY, 0, STATIC
        LOCFRAME DOVERLAY, 0, STATIC
        ARGFRAME ISTACK, 0, STACK
        ARGFRAME PSTACK, 0, STACK
        ARGFRAME XSTACK, 8, STACK
        ARGFRAME IOVERLAY, 0, STATIC
        ARGFRAME DOVERLAY, 0, STATIC
        FUNCALL `??delete ~CLADDA`, `??operator delete`
        LOCFRAME ISTACK, 0, STACK
        LOCFRAME PSTACK, 0, STACK
        LOCFRAME XSTACK, 8, STACK
        LOCFRAME IOVERLAY, 0, STATIC
        LOCFRAME DOVERLAY, 0, STATIC
        ARGFRAME ISTACK, 0, STACK
        ARGFRAME PSTACK, 0, STACK
        ARGFRAME XSTACK, 8, STACK
        ARGFRAME IOVERLAY, 0, STATIC
        ARGFRAME DOVERLAY, 0, STATIC
        MOV     A,#-0x8
        LCALL   ?FUNC_ENTER_XDATA
          CFI DPH0 load(1, XDATA, add(CFA_XSP16, literal(-1)))
          CFI DPL0 load(1, XDATA, add(CFA_XSP16, literal(-2)))
          CFI ?RET_HIGH load(1, XDATA, add(CFA_XSP16, literal(-3)))
          CFI ?RET_LOW load(1, XDATA, add(CFA_XSP16, literal(-4)))
          CFI R7 load(1, XDATA, add(CFA_XSP16, literal(-5)))
          CFI V0 load(1, XDATA, add(CFA_XSP16, literal(-6)))
          CFI VB load(1, XDATA, add(CFA_XSP16, literal(-7)))
          CFI R6 load(1, XDATA, add(CFA_XSP16, literal(-8)))
          CFI CFA_SP SP+0
          CFI CFA_XSP16 add(XSP16, 8)
        ; Saved register size: 8
        ; Auto size: 0
        MOV     A,R2
        MOV     R6,A
        MOV     A,R3
        MOV     R7,A
        MOV     A,R6
        ORL     A,R7
        JZ      `??delete ~CLADDA_1`
        ; Setup parameters for call to function CLADDA::~CLADDA()
        MOV     A,R6
        MOV     R2,A
        MOV     A,R7
        MOV     R3,A
        LCALL   `?~CLADDA`
        ; Setup parameters for call to function operator delete(void *)
        MOV     A,R6
        MOV     R2,A
        MOV     A,R7
        MOV     R3,A
        LCALL   `??operator delete`
`??delete ~CLADDA_1`:
        MOV     R7,#0x1
        LJMP    ?FUNC_LEAVE_XDATA
          CFI EndBlock cfiBlock1
//   15 #include "CLADDA.h"
//   16 
//   17 
//   18 

        RSEG NEAR_CODE:CODE:NOROOT(0)
//   19 CLADDA :: CLADDA(void)
??CLADDA:
          CFI Block cfiBlock2 Using cfiCommon0
          CFI Function ??CLADDA
        CODE
//   20 {
        ; Saved register size: 0
        ; Auto size: 0
//   21 
//   22 
//   23 
//   24 }
        RET
          CFI EndBlock cfiBlock2
//   25 
//   26 

        RSEG NEAR_CODE:CODE:NOROOT(0)
//   27 CLADDA :: ~CLADDA(void)
`?~CLADDA`:
          CFI Block cfiBlock3 Using cfiCommon0
          CFI Function `?~CLADDA`
        CODE
//   28 {
        ; Saved register size: 0
        ; Auto size: 0
//   29 
//   30 
//   31 
//   32 }
        RET
          CFI EndBlock cfiBlock3
//   33 
//   34 

        RSEG NEAR_CODE:CODE:NOROOT(0)
//   35 UC CLADDA :: ucConvADBuf(unsigned short int usiChanel)
??ucConvADBuf:
          CFI Block cfiBlock4 Using cfiCommon0
          CFI Function ??ucConvADBuf
        CODE
//   36 {
        FUNCALL ??ucConvADBuf, ??ucIn
        LOCFRAME ISTACK, 2, STACK
        LOCFRAME PSTACK, 0, STACK
        LOCFRAME XSTACK, 0, STACK
        LOCFRAME IOVERLAY, 0, STATIC
        LOCFRAME DOVERLAY, 0, STATIC
        ARGFRAME ISTACK, 2, STACK
        ARGFRAME PSTACK, 0, STACK
        ARGFRAME XSTACK, 0, STACK
        ARGFRAME IOVERLAY, 0, STATIC
        ARGFRAME DOVERLAY, 0, STATIC
        FUNCALL ??ucConvADBuf, ??ucIn
        LOCFRAME ISTACK, 2, STACK
        LOCFRAME PSTACK, 0, STACK
        LOCFRAME XSTACK, 0, STACK
        LOCFRAME IOVERLAY, 0, STATIC
        LOCFRAME DOVERLAY, 0, STATIC
        ARGFRAME ISTACK, 2, STACK
        ARGFRAME PSTACK, 0, STACK
        ARGFRAME XSTACK, 0, STACK
        ARGFRAME IOVERLAY, 0, STATIC
        ARGFRAME DOVERLAY, 0, STATIC
        PUSH    DPL
          CFI DPL0 Frame(CFA_SP, 3)
          CFI CFA_SP SP+-3
        PUSH    DPH
          CFI DPH0 Frame(CFA_SP, 4)
          CFI CFA_SP SP+-4
        ; Saved register size: 2
        ; Auto size: 0
        MOV     DPL,R2
        MOV     DPH,R3
//   37 
//   38   ucIn((0xFA08 + usiChanel));
        ; Setup parameters for call to function CLInOutBase::ucIn(unsigned short)
        MOV     A,R4
        ADD     A,#0x8
        MOV     R4,A
        MOV     A,R5
        ADDC    A,#-0x6
        MOV     R5,A
        MOV     R2,DPL
        MOV     R3,DPH
        LCALL   ??ucIn
        MOV     A,R1
//   39   P3_3 = 0;
        CLR     0xb0.3
//   40   P3_3 = 1;
        SETB    0xb0.3
//   41   while(P3_2 == 0);
??ucConvADBuf_1:
        MOV     C,0xb0.2
        JNC     ??ucConvADBuf_1
//   42   return(ucIn(0xFA10));
        ; Setup parameters for call to function CLInOutBase::ucIn(unsigned short)
        MOV     R4,#0x10
        MOV     R5,#-0x6
        MOV     R2,DPL
        MOV     R3,DPH
        LCALL   ??ucIn
        POP     DPH
          CFI DPH0 SameValue
          CFI CFA_SP SP+-3
        POP     DPL
          CFI DPL0 SameValue
          CFI CFA_SP SP+-2
        RET
          CFI EndBlock cfiBlock4
        REQUIRE _A_P3
//   43          
//   44   
//   45   
//   46 
//   47 }
//   48 

        RSEG NEAR_CODE:CODE:NOROOT(0)
//   49 void CLADDA :: vConvDALatch(unsigned short int usiChanel , UC ucData)
??vConvDALatch:
          CFI Block cfiBlock5 Using cfiCommon0
          CFI Function ??vConvDALatch
        CODE
//   50 {
        FUNCALL ??vConvDALatch, ??vOut
        LOCFRAME ISTACK, 0, STACK
        LOCFRAME PSTACK, 0, STACK
        LOCFRAME XSTACK, 9, STACK
        LOCFRAME IOVERLAY, 0, STATIC
        LOCFRAME DOVERLAY, 0, STATIC
        ARGFRAME ISTACK, 0, STACK
        ARGFRAME PSTACK, 0, STACK
        ARGFRAME XSTACK, 9, STACK
        ARGFRAME IOVERLAY, 0, STATIC
        ARGFRAME DOVERLAY, 0, STATIC
        FUNCALL ??vConvDALatch, ??vOut
        LOCFRAME ISTACK, 0, STACK
        LOCFRAME PSTACK, 0, STACK
        LOCFRAME XSTACK, 9, STACK
        LOCFRAME IOVERLAY, 0, STATIC
        LOCFRAME DOVERLAY, 0, STATIC
        ARGFRAME ISTACK, 0, STACK
        ARGFRAME PSTACK, 0, STACK
        ARGFRAME XSTACK, 9, STACK
        ARGFRAME IOVERLAY, 0, STATIC
        ARGFRAME DOVERLAY, 0, STATIC
        MOV     A,#-0x9
        LCALL   ?FUNC_ENTER_XDATA
          CFI DPH0 load(1, XDATA, add(CFA_XSP16, literal(-1)))
          CFI DPL0 load(1, XDATA, add(CFA_XSP16, literal(-2)))
          CFI ?RET_HIGH load(1, XDATA, add(CFA_XSP16, literal(-3)))
          CFI ?RET_LOW load(1, XDATA, add(CFA_XSP16, literal(-4)))
          CFI R7 load(1, XDATA, add(CFA_XSP16, literal(-5)))
          CFI V1 load(1, XDATA, add(CFA_XSP16, literal(-6)))
          CFI V0 load(1, XDATA, add(CFA_XSP16, literal(-7)))
          CFI VB load(1, XDATA, add(CFA_XSP16, literal(-8)))
          CFI R6 load(1, XDATA, add(CFA_XSP16, literal(-9)))
          CFI CFA_SP SP+0
          CFI CFA_XSP16 add(XSP16, 9)
        ; Saved register size: 9
        ; Auto size: 0
        MOV     DPL,R2
        MOV     DPH,R3
        MOV     ?V0 + 0,R4
        MOV     ?V0 + 1,R5
        MOV     A,R1
        MOV     R6,A
//   51 
//   52 
//   53  vOut(0xFA20 , ucData); //Sortie 8bit
        ; Setup parameters for call to function CLInOutBase::vOut(unsigned short, unsigned char)
        MOV     A,R6
        MOV     R1,A
        MOV     R4,#0x20
        MOV     R5,#-0x6
        MOV     R2,DPL
        MOV     R3,DPH
        LCALL   ??vOut
//   54  vOut((0xFA28 + usiChanel)  , ucData); //Sortie 8bit
        ; Setup parameters for call to function CLInOutBase::vOut(unsigned short, unsigned char)
        MOV     A,R6
        MOV     R1,A
        MOV     A,?V0 + 0
        ADD     A,#0x28
        MOV     R4,A
        MOV     A,?V0 + 1
        ADDC    A,#-0x6
        MOV     R5,A
        MOV     R2,DPL
        MOV     R3,DPH
        LCALL   ??vOut
//   55 
//   56          
//   57   
//   58   
//   59 
//   60 }
        MOV     R7,#0x2
        LJMP    ?FUNC_LEAVE_XDATA
          CFI EndBlock cfiBlock5

        RSEG NEAR_CODE:CODE:NOROOT(0)
//   61 UC CLADDA :: ucDataIN(UC ucBit)
??ucDataIN:
          CFI Block cfiBlock6 Using cfiCommon0
          CFI Function ??ucDataIN
        CODE
//   62 {
        FUNCALL ??ucDataIN, ??ucIn
        LOCFRAME ISTACK, 1, STACK
        LOCFRAME PSTACK, 0, STACK
        LOCFRAME XSTACK, 0, STACK
        LOCFRAME IOVERLAY, 0, STATIC
        LOCFRAME DOVERLAY, 0, STATIC
        ARGFRAME ISTACK, 1, STACK
        ARGFRAME PSTACK, 0, STACK
        ARGFRAME XSTACK, 0, STACK
        ARGFRAME IOVERLAY, 0, STATIC
        ARGFRAME DOVERLAY, 0, STATIC
        FUNCALL ??ucDataIN, ??ucIn
        LOCFRAME ISTACK, 1, STACK
        LOCFRAME PSTACK, 0, STACK
        LOCFRAME XSTACK, 0, STACK
        LOCFRAME IOVERLAY, 0, STATIC
        LOCFRAME DOVERLAY, 0, STATIC
        ARGFRAME ISTACK, 1, STACK
        ARGFRAME PSTACK, 0, STACK
        ARGFRAME XSTACK, 0, STACK
        ARGFRAME IOVERLAY, 0, STATIC
        ARGFRAME DOVERLAY, 0, STATIC
        FUNCALL ??ucDataIN, ??ucIn
        LOCFRAME ISTACK, 1, STACK
        LOCFRAME PSTACK, 0, STACK
        LOCFRAME XSTACK, 0, STACK
        LOCFRAME IOVERLAY, 0, STATIC
        LOCFRAME DOVERLAY, 0, STATIC
        ARGFRAME ISTACK, 1, STACK
        ARGFRAME PSTACK, 0, STACK
        ARGFRAME XSTACK, 0, STACK
        ARGFRAME IOVERLAY, 0, STATIC
        ARGFRAME DOVERLAY, 0, STATIC
        FUNCALL ??ucDataIN, ??ucIn
        LOCFRAME ISTACK, 1, STACK
        LOCFRAME PSTACK, 0, STACK
        LOCFRAME XSTACK, 0, STACK
        LOCFRAME IOVERLAY, 0, STATIC
        LOCFRAME DOVERLAY, 0, STATIC
        ARGFRAME ISTACK, 1, STACK
        ARGFRAME PSTACK, 0, STACK
        ARGFRAME XSTACK, 0, STACK
        ARGFRAME IOVERLAY, 0, STATIC
        ARGFRAME DOVERLAY, 0, STATIC
        FUNCALL ??ucDataIN, ??ucIn
        LOCFRAME ISTACK, 1, STACK
        LOCFRAME PSTACK, 0, STACK
        LOCFRAME XSTACK, 0, STACK
        LOCFRAME IOVERLAY, 0, STATIC
        LOCFRAME DOVERLAY, 0, STATIC
        ARGFRAME ISTACK, 1, STACK
        ARGFRAME PSTACK, 0, STACK
        ARGFRAME XSTACK, 0, STACK
        ARGFRAME IOVERLAY, 0, STATIC
        ARGFRAME DOVERLAY, 0, STATIC
        FUNCALL ??ucDataIN, ??ucIn
        LOCFRAME ISTACK, 1, STACK
        LOCFRAME PSTACK, 0, STACK
        LOCFRAME XSTACK, 0, STACK
        LOCFRAME IOVERLAY, 0, STATIC
        LOCFRAME DOVERLAY, 0, STATIC
        ARGFRAME ISTACK, 1, STACK
        ARGFRAME PSTACK, 0, STACK
        ARGFRAME XSTACK, 0, STACK
        ARGFRAME IOVERLAY, 0, STATIC
        ARGFRAME DOVERLAY, 0, STATIC
        FUNCALL ??ucDataIN, ??ucIn
        LOCFRAME ISTACK, 1, STACK
        LOCFRAME PSTACK, 0, STACK
        LOCFRAME XSTACK, 0, STACK
        LOCFRAME IOVERLAY, 0, STATIC
        LOCFRAME DOVERLAY, 0, STATIC
        ARGFRAME ISTACK, 1, STACK
        ARGFRAME PSTACK, 0, STACK
        ARGFRAME XSTACK, 0, STACK
        ARGFRAME IOVERLAY, 0, STATIC
        ARGFRAME DOVERLAY, 0, STATIC
        FUNCALL ??ucDataIN, ??ucIn
        LOCFRAME ISTACK, 1, STACK
        LOCFRAME PSTACK, 0, STACK
        LOCFRAME XSTACK, 0, STACK
        LOCFRAME IOVERLAY, 0, STATIC
        LOCFRAME DOVERLAY, 0, STATIC
        ARGFRAME ISTACK, 1, STACK
        ARGFRAME PSTACK, 0, STACK
        ARGFRAME XSTACK, 0, STACK
        ARGFRAME IOVERLAY, 0, STATIC
        ARGFRAME DOVERLAY, 0, STATIC
        FUNCALL ??ucDataIN, ??ucIn
        LOCFRAME ISTACK, 1, STACK
        LOCFRAME PSTACK, 0, STACK
        LOCFRAME XSTACK, 0, STACK
        LOCFRAME IOVERLAY, 0, STATIC
        LOCFRAME DOVERLAY, 0, STATIC
        ARGFRAME ISTACK, 1, STACK
        ARGFRAME PSTACK, 0, STACK
        ARGFRAME XSTACK, 0, STACK
        ARGFRAME IOVERLAY, 0, STATIC
        ARGFRAME DOVERLAY, 0, STATIC
        MOV     A,R6
          CFI R6 A
        PUSH    A
          CFI R6 Frame(CFA_SP, 3)
          CFI CFA_SP SP+-3
        ; Saved register size: 1
        ; Auto size: 0
        MOV     A,R1
        MOV     R6,A
//   63   switch(ucBit)
        JZ      ??ucDataIN_1
        DEC     A
        JZ      ??ucDataIN_2
        DEC     A
        JZ      ??ucDataIN_3
        DEC     A
        JZ      ??ucDataIN_4
        DEC     A
        JZ      ??ucDataIN_5
        DEC     A
        JZ      ??ucDataIN_6
        DEC     A
        JZ      ??ucDataIN_7
        DEC     A
        JZ      ??ucDataIN_8
        DEC     A
        JNZ     $+5
        LJMP    ??ucDataIN_9
        LJMP    ??ucDataIN_10
//   64   {
//   65   case 0:
//   66      return(  (ucIn(0xFA00)) & 0x01 );
??ucDataIN_1:
        ; Setup parameters for call to function CLInOutBase::ucIn(unsigned short)
        MOV     R4,#0x0
        MOV     R5,#-0x6
        LCALL   ??ucIn
        MOV     A,R1
        MOV     R0,A
        MOV     C,0xE0 /* A   */.0
        CLR     A
        RLC     A
        MOV     R1,A
        SJMP    ??ucDataIN_10
//   67     break;
//   68       case 1:
//   69      return(  ((ucIn(0xFA00)) & 0x02) >> 1 );
??ucDataIN_2:
        ; Setup parameters for call to function CLInOutBase::ucIn(unsigned short)
        MOV     R4,#0x0
        MOV     R5,#-0x6
        LCALL   ??ucIn
        MOV     A,R1
        MOV     R0,A
        MOV     C,0xE0 /* A   */.1
        CLR     A
        RLC     A
        MOV     R1,A
        SJMP    ??ucDataIN_10
//   70     break;
//   71     case 2:
//   72      return(  ((ucIn(0xFA00)) & 0x04) >> 2 );
??ucDataIN_3:
        ; Setup parameters for call to function CLInOutBase::ucIn(unsigned short)
        MOV     R4,#0x0
        MOV     R5,#-0x6
        LCALL   ??ucIn
        MOV     A,R1
        MOV     R0,A
        MOV     C,0xE0 /* A   */.2
        CLR     A
        RLC     A
        MOV     R1,A
        SJMP    ??ucDataIN_10
//   73     break;
//   74      case 3:
//   75      return(  ((ucIn(0xFA00)) & 0x08) >> 3 );
??ucDataIN_4:
        ; Setup parameters for call to function CLInOutBase::ucIn(unsigned short)
        MOV     R4,#0x0
        MOV     R5,#-0x6
        LCALL   ??ucIn
        MOV     A,R1
        MOV     R0,A
        MOV     C,0xE0 /* A   */.3
        CLR     A
        RLC     A
        MOV     R1,A
        SJMP    ??ucDataIN_10
//   76     break;
//   77      case 4:
//   78      return(  ((ucIn(0xFA00)) & 0x10) >> 4 );
??ucDataIN_5:
        ; Setup parameters for call to function CLInOutBase::ucIn(unsigned short)
        MOV     R4,#0x0
        MOV     R5,#-0x6
        LCALL   ??ucIn
        MOV     A,R1
        MOV     R0,A
        MOV     C,0xE0 /* A   */.4
        CLR     A
        RLC     A
        MOV     R1,A
        SJMP    ??ucDataIN_10
//   79     break;
//   80      case 5:
//   81      return(  ((ucIn(0xFA00)) & 0x20) >> 5 );
??ucDataIN_6:
        ; Setup parameters for call to function CLInOutBase::ucIn(unsigned short)
        MOV     R4,#0x0
        MOV     R5,#-0x6
        LCALL   ??ucIn
        MOV     A,R1
        MOV     R0,A
        MOV     C,0xE0 /* A   */.5
        CLR     A
        RLC     A
        MOV     R1,A
        SJMP    ??ucDataIN_10
//   82     break;
//   83       case 6:
//   84      return(  ((ucIn(0xFA00)) & 0x40) >> 6 );
??ucDataIN_7:
        ; Setup parameters for call to function CLInOutBase::ucIn(unsigned short)
        MOV     R4,#0x0
        MOV     R5,#-0x6
        LCALL   ??ucIn
        MOV     A,R1
        MOV     R0,A
        MOV     C,0xE0 /* A   */.6
        CLR     A
        RLC     A
        MOV     R1,A
        SJMP    ??ucDataIN_10
//   85     break;
//   86      case 7:
//   87      return(  ((ucIn(0xFA00)) & 0x80) >> 7 );
??ucDataIN_8:
        ; Setup parameters for call to function CLInOutBase::ucIn(unsigned short)
        MOV     R4,#0x0
        MOV     R5,#-0x6
        LCALL   ??ucIn
        MOV     A,R1
        MOV     R0,A
        MOV     C,0xE0 /* A   */.7
        CLR     A
        RLC     A
        MOV     R1,A
        SJMP    ??ucDataIN_10
//   88     break;
//   89      case 8:
//   90      return( ucIn(0xFA00));
??ucDataIN_9:
        ; Setup parameters for call to function CLInOutBase::ucIn(unsigned short)
        MOV     R4,#0x0
        MOV     R5,#-0x6
        LCALL   ??ucIn
//   91     break;
//   92   
//   93   }
//   94   
//   95  
//   96 
//   97 }
??ucDataIN_10:
        POP     A
          CFI R6 A
          CFI CFA_SP SP+-2
        MOV     R6,A
          CFI R6 SameValue
        RET
          CFI EndBlock cfiBlock6

        END
//   98 
//   99 
//  100 
//  101 
//  102 //@@@@@@@@@@@@@@@@@@@@@@@@@@@@@@@@@@@@@@@@@@@@@@@@@@@@@@@@@@@@@@@@@@@@@@@@@@@@@@
// 
// 359 bytes in segment NEAR_CODE
//   1 byte  in segment SFR_AN
// 
// 359 bytes of CODE memory
//   0 bytes of DATA memory (+ 1 byte shared)
//
//Errors: none
//Warnings: 1
